(lp0
F0.0
aF2.298853076409707
aF1.1139433523068367
aF1.3617278360175928
aF0.0
aF0.6989700043360189
aF0.6989700043360189
aF0.3010299956639812
aF0.7781512503836436
aF1.4771212547196624
aF0.6020599913279624
aF0.3010299956639812
aF0.6989700043360189
aF0.0
aF3.922569768985712
aF0.6020599913279624
aF3.922569768985712
aF0.7781512503836436
aF0.9542425094393249
aF0.0
aF0.0
aF3.922569768985712
aF3.3203540328176717
aF1.2787536009528289
aF1.8325089127062364
aF2.717670503002262
aF1.1139433523068367
aF1.7708520116421442
aF1.2304489213782739
aF0.0
aF0.3010299956639812
aF1.7853298350107671
aF0.6989700043360189
aF2.5998830720736876
aF0.0
aF1.0
aF2.1271047983648077
aF0.3010299956639812
aF0.3010299956639812
aF3.922569768985712
aF0.47712125471966244
aF1.9084850188786497
aF0.47712125471966244
aF0.6020599913279624
aF1.2041199826559248
aF1.2304489213782739
aF1.0
aF3.922569768985712
aF1.5440680443502757
aF1.380211241711606
aF0.47712125471966244
aF0.3010299956639812
aF0.3010299956639812
aF0.0
aF0.7781512503836436
aF1.3979400086720377
aF0.3010299956639812
aF3.144262773761991
aF1.0
aF0.6020599913279624
aF0.47712125471966244
aF0.47712125471966244
aF0.3010299956639812
aF1.3010299956639813
aF0.7781512503836436
aF0.9030899869919435
aF1.505149978319906
aF3.144262773761991
aF1.6720978579357175
aF3.44544851426605
aF3.922569768985712
aF0.0
aF0.8450980400142568
aF1.146128035678238
aF1.2787536009528289
aF2.2576785748691846
aF3.44544851426605
aF2.416640507338281
aF0.6989700043360189
aF1.662757831681574
aF0.7781512503836436
aF1.4313637641589874
aF1.7075701760979363
aF1.6334684555795864
aF3.922569768985712
aF3.922569768985712
aF0.47712125471966244
aF3.44544851426605
aF1.4313637641589874
aF0.0
aF1.414973347970818
aF3.44544851426605
aF0.9542425094393249
aF0.7781512503836436
aF0.47712125471966244
aF0.3010299956639812
aF0.47712125471966244
aF1.5314789170422551
aF0.0
aF1.2304489213782739
aF1.3424226808222062
aF3.44544851426605
aF1.591064607026499
aF2.1271047983648077
aF3.922569768985712
aF1.9138138523837167
aF3.144262773761991
aF1.863322860120456
aF3.922569768985712
aF3.019116290447073
aF1.0413926851582251
aF2.2671717284030137
aF0.9030899869919435
aF3.922569768985712
aF1.9822712330395684
aF1.6020599913279623
aF3.922569768985712
aF1.1139433523068367
aF1.505149978319906
aF0.3010299956639812
aF1.3617278360175928
aF0.47712125471966244
aF3.922569768985712
aF1.4471580313422192
aF3.144262773761991
aF3.922569768985712
aF0.0
aF0.6020599913279624
aF0.47712125471966244
aF1.3222192947339193
aF1.724275869600789
aF1.8976270912904414
aF2.250420002308894
aF1.7481880270062005
aF0.6989700043360189
aF1.146128035678238
aF1.8260748027008264
aF2.187520720836463
aF2.113943352306837
aF2.416640507338281
aF0.9542425094393249
aF1.255272505103306
aF1.0413926851582251
aF1.1760912590556813
aF1.3979400086720377
aF1.0413926851582251
aF1.8260748027008264
aF1.9731278535996986
aF0.9030899869919435
aF1.845098040014257
aF0.3010299956639812
aF1.2787536009528289
aF3.922569768985712
aF1.568201724066995
aF3.44544851426605
aF0.6989700043360189
aF3.922569768985712
aF1.954242509439325
aF0.3010299956639812
aF0.47712125471966244
aF0.3010299956639812
aF3.922569768985712
aF3.922569768985712
aF2.8808135922807914
aF2.342422680822206
aF3.922569768985712
aF3.922569768985712
aF0.3010299956639812
aF1.5185139398778875
aF1.3010299956639813
aF2.3909351071033793
aF1.146128035678238
aF2.444044795918076
aF3.922569768985712
aF1.0413926851582251
aF2.968015713993642
aF2.3096301674258988
aF3.922569768985712
aF1.9637878273455553
aF1.4771212547196624
aF3.6214878645806303
aF3.3203540328176717
aF2.330413773349191
aF3.0773679052841563
aF3.6214878645806303
aF2.03342375548695
aF3.922569768985712
aF3.2234959409623944
aF3.922569768985712
aF0.8450980400142568
aF0.3010299956639812
aF0.6020599913279624
aF2.9222062774390163
aF1.4771212547196624
aF2.2405492482826
aF2.6434526764861874
aF1.5314789170422551
aF1.5314789170422551
aF2.093421685162235
aF1.7993405494535817
aF1.8388490907372552
aF2.2671717284030137
aF0.6020599913279624
aF0.6020599913279624
aF1.146128035678238
aF0.3010299956639812
aF0.47712125471966244
aF1.1139433523068367
aF0.3010299956639812
aF1.3010299956639813
aF1.2304489213782739
aF0.9030899869919435
aF1.1760912590556813
aF1.9867717342662448
aF2.0
aF2.69196510276736
aF3.6214878645806303
aF3.922569768985712
aF2.214843848047698
aF3.922569768985712
aF3.922569768985712
aF2.9222062774390163
aF3.3203540328176717
aF0.3010299956639812
aF3.922569768985712
aF2.03342375548695
aF1.2787536009528289
aF2.2576785748691846
aF2.164352855784437
aF0.0
aF1.662757831681574
aF3.3203540328176717
aF1.9590413923210936
aF1.2787536009528289
aF0.9542425094393249
aF0.3010299956639812
aF2.3201462861110542
aF1.6434526764861874
aF2.2671717284030137
aF1.0413926851582251
aF1.2304489213782739
aF1.5797835966168101
aF1.3424226808222062
aF3.44544851426605
aF0.6989700043360189
aF0.3010299956639812
aF3.6214878645806303
aF2.3909351071033793
aF3.6214878645806303
aF3.2234959409623944
aF3.44544851426605
aF2.3201462861110542
aF1.7708520116421442
aF3.44544851426605
aF3.2234959409623944
aF3.44544851426605
aF1.591064607026499
aF3.2234959409623944
aF2.968015713993642
aF3.2234959409623944
aF2.3783979009481375
aF0.47712125471966244
aF1.5440680443502757
aF3.922569768985712
aF2.717670503002262
aF2.278753600952829
aF3.6214878645806303
aF3.2234959409623944
aF2.0211892990699383
aF3.2234959409623944
aF3.922569768985712
aF2.173186268412274
aF3.922569768985712
aF3.6214878645806303
aF3.922569768985712
aF2.968015713993642
aF3.0773679052841563
aF3.922569768985712
aF2.2041199826559246
aF3.44544851426605
aF3.019116290447073
aF2.775974331129369
aF2.6434526764861874
aF2.187520720836463
aF3.922569768985712
aF3.922569768985712
aF0.6020599913279624
aF3.922569768985712
aF3.922569768985712
aF2.3783979009481375
aF0.8450980400142568
aF2.187520720836463
aF2.459392487759231
aF2.416640507338281
aF2.808210972924222
aF1.0413926851582251
aF1.863322860120456
aF1.1139433523068367
aF2.330413773349191
aF2.3909351071033793
aF1.414973347970818
aF0.7781512503836436
aF1.0413926851582251
aF1.4313637641589874
aF1.3424226808222062
aF2.1583624920952498
aF3.6214878645806303
aF1.8325089127062364
aF0.8450980400142568
aF0.3010299956639812
aF1.7853298350107671
aF2.187520720836463
aF3.3203540328176717
aF2.717670503002262
aF3.922569768985712
aF1.4471580313422192
aF2.3909351071033793
aF3.922569768985712
aF0.6989700043360189
aF3.6214878645806303
aF1.8260748027008264
aF1.1139433523068367
aF2.69196510276736
aF3.6214878645806303
aF3.922569768985712
aF2.4742162640762553
aF1.9138138523837167
aF3.6214878645806303
aF1.9138138523837167
aF1.4771212547196624
aF1.3222192947339193
aF3.44544851426605
aF3.922569768985712
aF0.9542425094393249
aF2.0530784434834195
aF3.44544851426605
aF2.4899584794248346
aF1.3222192947339193
aF2.8808135922807914
aF3.44544851426605
aF2.0453229787866576
aF3.144262773761991
aF3.922569768985712
aF2.621176281775035
aF3.922569768985712
aF3.922569768985712
aF2.2227164711475833
aF1.9084850188786497
aF3.3203540328176717
aF3.6214878645806303
aF1.4471580313422192
aF3.922569768985712
aF1.7075701760979363
aF3.922569768985712
aF1.7558748556724915
aF3.44544851426605
aF0.6020599913279624
aF2.0681858617461617
aF3.922569768985712
aF2.8432327780980096
aF3.922569768985712
aF2.5415792439465807
aF0.9542425094393249
aF3.922569768985712
aF3.922569768985712
aF1.6434526764861874
aF3.922569768985712
aF2.3654879848909
aF2.1367205671564067
aF1.3010299956639813
aF1.919078092376074
aF2.968015713993642
aF2.808210972924222
aF0.3010299956639812
aF3.6214878645806303
aF1.5314789170422551
aF3.922569768985712
aF3.6214878645806303
aF1.1139433523068367
aF1.505149978319906
aF1.0791812460476249
aF1.8512583487190752
aF0.47712125471966244
aF1.0791812460476249
aF3.3203540328176717
aF3.44544851426605
aF1.5797835966168101
aF1.462397997898956
aF1.8864907251724818
aF1.0
aF1.7323937598229686
aF1.146128035678238
aF1.0
aF0.9030899869919435
aF1.7853298350107671
aF1.8692317197309762
aF1.0
aF1.7993405494535817
aF1.380211241711606
aF1.462397997898956
aF1.6434526764861874
aF3.44544851426605
aF3.6214878645806303
aF2.100370545117563
aF3.922569768985712
aF1.8195439355418688
aF2.968015713993642
aF3.922569768985712
aF2.6434526764861874
aF1.4913616938342726
aF2.0530784434834195
aF2.0170333392987803
aF3.6214878645806303
aF0.6989700043360189
aF1.7634279935629373
aF1.7403626894942439
aF1.7160033436347992
aF1.5563025007672873
aF0.6020599913279624
aF2.808210972924222
aF3.6214878645806303
aF2.3783979009481375
aF2.1492191126553797
aF1.5797835966168101
aF1.6812412373755872
aF1.0413926851582251
aF2.57978359661681
aF1.3010299956639813
aF3.922569768985712
aF2.0211892990699383
aF3.922569768985712
aF2.4742162640762553
aF1.2787536009528289
aF0.9542425094393249
aF3.922569768985712
aF3.6214878645806303
aF2.278753600952829
aF1.5440680443502757
aF2.57978359661681
aF2.968015713993642
aF0.9542425094393249
aF2.0453229787866576
aF1.6812412373755872
aF3.922569768985712
aF1.9731278535996986
aF3.6214878645806303
aF1.3424226808222062
aF0.0
aF1.3010299956639813
aF0.8450980400142568
aF1.9867717342662448
aF2.9222062774390163
aF2.9222062774390163
aF2.187520720836463
aF1.7075701760979363
aF2.5998830720736876
aF3.0773679052841563
aF3.0773679052841563
aF1.8864907251724818
aF2.8808135922807914
aF3.922569768985712
aF2.0644579892269186
aF1.5563025007672873
aF3.922569768985712
aF3.922569768985712
aF2.2227164711475833
aF3.0773679052841563
aF1.9493900066449128
aF1.5797835966168101
aF1.8692317197309762
aF3.6214878645806303
aF3.922569768985712
aF3.3203540328176717
aF2.1271047983648077
aF3.144262773761991
aF1.6127838567197355
aF2.5599066250361124
aF1.6020599913279623
aF2.775974331129369
aF2.4742162640762553
aF2.621176281775035
aF3.019116290447073
aF1.6434526764861874
aF2.3654879848909
aF2.5415792439465807
aF3.3203540328176717
aF1.462397997898956
aF0.0
aF0.3010299956639812
aF0.0
aF1.1139433523068367
aF3.922569768985712
aF3.922569768985712
aF3.922569768985712
aF3.922569768985712
aF2.4742162640762553
aF3.922569768985712
aF2.69196510276736
aF2.0453229787866576
aF3.6214878645806303
aF2.5415792439465807
aF1.380211241711606
aF3.44544851426605
aF2.250420002308894
aF3.144262773761991
aF1.9777236052888478
aF3.922569768985712
aF2.4742162640762553
aF1.4771212547196624
aF1.0791812460476249
aF1.919078092376074
aF2.775974331129369
aF0.6020599913279624
aF3.44544851426605
aF2.3541084391474008
aF2.0170333392987803
aF3.922569768985712
aF3.922569768985712
aF3.144262773761991
aF3.6214878645806303
aF1.954242509439325
aF3.6214878645806303
aF3.3203540328176717
aF2.1072099696478683
aF3.6214878645806303
aF3.6214878645806303
aF3.44544851426605
aF1.9030899869919435
aF3.922569768985712
aF3.922569768985712
aF3.922569768985712
aF3.3203540328176717
aF2.8432327780980096
aF3.922569768985712
aF2.1492191126553797
aF3.922569768985712
aF0.47712125471966244
aF1.1760912590556813
aF2.506505032404872
aF2.342422680822206
aF0.3010299956639812
aF1.3222192947339193
aF3.019116290447073
aF1.591064607026499
aF2.3654879848909
aF3.6214878645806303
aF3.922569768985712
aF3.922569768985712
aF2.968015713993642
aF3.019116290447073
aF0.6020599913279624
aF3.3203540328176717
aF1.414973347970818
aF1.380211241711606
aF1.146128035678238
aF3.922569768985712
aF3.922569768985712
aF3.922569768985712
aF3.922569768985712
aF0.7781512503836436
aF0.9030899869919435
aF1.919078092376074
aF2.8432327780980096
aF2.9222062774390163
aF3.922569768985712
aF1.9344984512435677
aF3.2234959409623944
aF1.0413926851582251
aF2.621176281775035
aF3.6214878645806303
aF3.44544851426605
aF1.4471580313422192
aF1.380211241711606
aF2.1492191126553797
aF2.3096301674258988
aF3.6214878645806303
aF2.1271047983648077
aF0.3010299956639812
aF2.808210972924222
aF3.6214878645806303
aF2.745855195173729
aF3.6214878645806303
aF1.3010299956639813
aF1.380211241711606
aF3.019116290447073
aF3.922569768985712
aF2.6665179805548807
aF1.7403626894942439
aF3.922569768985712
aF1.0413926851582251
aF1.4313637641589874
aF3.922569768985712
aF3.2234959409623944
aF2.5998830720736876
aF3.922569768985712
aF2.8432327780980096
aF1.6334684555795864
aF3.922569768985712
aF1.0791812460476249
aF1.6812412373755872
aF2.342422680822206
aF3.44544851426605
aF1.4471580313422192
aF3.3203540328176717
aF2.0530784434834195
aF1.4771212547196624
aF3.922569768985712
aF3.922569768985712
aF2.0086001717619175
aF3.922569768985712
aF1.6720978579357175
aF2.173186268412274
aF2.2671717284030137
aF2.506505032404872
aF0.6989700043360189
aF3.922569768985712
aF3.922569768985712
aF3.922569768985712
aF3.019116290447073
aF2.69196510276736
aF3.44544851426605
aF2.506505032404872
aF3.144262773761991
aF1.4913616938342726
aF3.2234959409623944
aF3.2234959409623944
aF3.922569768985712
aF3.0773679052841563
aF3.44544851426605
aF3.3203540328176717
aF1.6532125137753437
aF2.250420002308894
aF2.2405492482826
aF2.2405492482826
aF1.2304489213782739
aF3.3203540328176717
aF3.922569768985712
aF2.5998830720736876
aF3.922569768985712
aF1.8864907251724818
aF3.922569768985712
aF2.3096301674258988
aF1.954242509439325
aF3.922569768985712
aF2.775974331129369
aF2.459392487759231
aF3.922569768985712
aF3.922569768985712
aF2.6434526764861874
aF3.44544851426605
aF0.3010299956639812
aF3.922569768985712
aF2.4899584794248346
aF1.6127838567197355
aF3.44544851426605
aF3.44544851426605
aF3.922569768985712
aF3.922569768985712
aF1.4471580313422192
aF2.5415792439465807
aF0.0
aF0.3010299956639812
aF3.6214878645806303
aF3.0773679052841563
aF3.2234959409623944
aF1.3424226808222062
aF3.44544851426605
aF1.462397997898956
aF3.922569768985712
aF1.2787536009528289
aF3.922569768985712
aF3.6214878645806303
aF0.6020599913279624
aF3.6214878645806303
aF2.808210972924222
aF1.2041199826559248
aF3.6214878645806303
aF3.6214878645806303
aF2.5237464668115646
aF2.6434526764861874
aF3.922569768985712
aF0.9030899869919435
aF3.3203540328176717
aF2.287801729930226
aF3.922569768985712
aF3.3203540328176717
aF2.9222062774390163
aF2.621176281775035
aF3.6214878645806303
aF0.3010299956639812
aF3.6214878645806303
aF0.9030899869919435
aF1.9493900066449128
aF0.8450980400142568
aF3.6214878645806303
aF2.3909351071033793
aF3.6214878645806303
aF2.9222062774390163
aF2.5998830720736876
aF3.922569768985712
aF3.922569768985712
aF3.922569768985712
aF0.47712125471966244
aF2.5237464668115646
aF2.342422680822206
aF2.8808135922807914
aF1.2787536009528289
aF3.44544851426605
aF3.922569768985712
aF2.2671717284030137
aF3.0773679052841563
aF3.922569768985712
aF1.414973347970818
aF3.6214878645806303
aF1.8864907251724818
aF1.3979400086720377
aF3.922569768985712
aF3.922569768985712
aF2.621176281775035
aF2.12057393120585
aF1.0
aF3.019116290447073
aF3.922569768985712
aF3.922569768985712
aF2.5599066250361124
aF3.922569768985712
aF2.69196510276736
aF0.9542425094393249
aF2.1271047983648077
aF1.5314789170422551
aF3.019116290447073
aF2.5415792439465807
aF0.3010299956639812
aF2.8432327780980096
aF2.3654879848909
aF3.922569768985712
aF3.922569768985712
aF3.922569768985712
aF3.6214878645806303
aF1.6127838567197355
aF3.922569768985712
aF2.1492191126553797
aF1.3222192947339193
aF3.44544851426605
aF3.3203540328176717
aF3.922569768985712
aF3.6214878645806303
aF2.717670503002262
aF1.2041199826559248
aF2.621176281775035
aF2.5415792439465807
aF3.3203540328176717
aF2.745855195173729
aF1.146128035678238
aF2.968015713993642
aF1.845098040014257
aF3.922569768985712
aF3.6214878645806303
aF0.0
aF2.403120521175818
aF3.922569768985712
aF0.3010299956639812
aF3.6214878645806303
aF2.57978359661681
aF3.6214878645806303
aF1.8129133566428555
aF2.6434526764861874
aF3.019116290447073
aF1.8512583487190752
aF3.922569768985712
aF2.6434526764861874
aF1.505149978319906
aF1.4471580313422192
aF1.591064607026499
aF3.922569768985712
aF2.8432327780980096
aF2.2405492482826
aF3.44544851426605
aF1.4313637641589874
aF3.922569768985712
aF1.6532125137753437
aF3.3203540328176717
aF0.7781512503836436
aF2.2405492482826
aF3.922569768985712
aF2.968015713993642
aF2.3783979009481375
aF3.922569768985712
aF2.8808135922807914
aF2.5998830720736876
aF3.144262773761991
aF2.8808135922807914
aF1.7781512503836436
aF1.7403626894942439
aF3.922569768985712
aF3.922569768985712
aF1.6020599913279623
aF3.6214878645806303
aF1.792391689498254
aF1.0413926851582251
aF3.6214878645806303
aF3.3203540328176717
aF2.8808135922807914
aF3.2234959409623944
aF2.6665179805548807
aF3.922569768985712
aF3.3203540328176717
aF3.2234959409623944
aF3.44544851426605
aF1.1139433523068367
aF1.0413926851582251
aF3.922569768985712
aF2.1583624920952498
aF3.922569768985712
aF2.0086001717619175
aF3.922569768985712
aF2.717670503002262
aF2.5599066250361124
aF2.6665179805548807
aF3.2234959409623944
aF3.44544851426605
aF0.3010299956639812
aF1.8260748027008264
aF3.44544851426605
aF2.5415792439465807
aF2.2227164711475833
aF3.922569768985712
aF2.775974331129369
aF1.724275869600789
aF2.429752280002408
aF3.922569768985712
aF3.922569768985712
aF2.3096301674258988
aF2.459392487759231
aF3.3203540328176717
aF2.416640507338281
aF3.2234959409623944
aF3.922569768985712
aF2.12057393120585
aF1.5185139398778875
aF2.2405492482826
aF2.3909351071033793
aF2.8808135922807914
aF3.6214878645806303
aF1.0791812460476249
aF2.57978359661681
aF2.0293837776852097
aF2.717670503002262
aF3.922569768985712
aF3.922569768985712
aF1.863322860120456
aF2.3201462861110542
aF3.6214878645806303
aF2.278753600952829
aF2.1367205671564067
aF2.717670503002262
aF1.2304489213782739
aF1.2041199826559248
aF3.2234959409623944
aF2.1583624920952498
aF1.6020599913279623
aF3.2234959409623944
aF2.4742162640762553
aF2.8432327780980096
aF3.3203540328176717
aF2.8808135922807914
aF1.9138138523837167
aF2.2405492482826
aF1.7075701760979363
aF3.44544851426605
aF1.3222192947339193
aF3.922569768985712
aF3.922569768985712
aF1.3010299956639813
aF3.019116290447073
aF2.8432327780980096
aF3.922569768985712
aF3.922569768985712
aF2.0755469613925306
aF2.4742162640762553
aF2.12057393120585
aF3.44544851426605
aF3.6214878645806303
aF3.3203540328176717
aF0.6020599913279624
aF0.9542425094393249
aF2.57978359661681
aF1.7781512503836436
aF2.1583624920952498
aF2.230448921378274
aF2.3654879848909
aF3.44544851426605
aF2.1583624920952498
aF1.414973347970818
aF2.3654879848909
aF2.5599066250361124
aF2.8432327780980096
aF3.44544851426605
aF3.6214878645806303
aF2.3201462861110542
aF3.2234959409623944
aF2.444044795918076
aF2.041392685158225
aF1.0413926851582251
aF2.187520720836463
aF2.012837224705172
aF2.4742162640762553
aF3.922569768985712
aF3.6214878645806303
aF3.2234959409623944
aF3.6214878645806303
aF2.342422680822206
aF3.922569768985712
aF2.968015713993642
aF3.922569768985712
aF3.6214878645806303
aF3.144262773761991
aF1.4771212547196624
aF1.7481880270062005
aF2.968015713993642
aF3.0773679052841563
aF3.6214878645806303
aF2.3909351071033793
aF1.8692317197309762
aF2.214843848047698
aF2.416640507338281
aF3.144262773761991
aF3.3203540328176717
aF1.5314789170422551
aF3.0773679052841563
aF2.968015713993642
aF2.8808135922807914
aF3.3203540328176717
aF2.775974331129369
aF3.922569768985712
aF3.922569768985712
aF1.9084850188786497
aF3.44544851426605
aF3.0773679052841563
aF2.57978359661681
aF3.922569768985712
aF1.8260748027008264
aF3.922569768985712
aF1.5440680443502757
aF3.922569768985712
aF0.3010299956639812
aF3.0773679052841563
aF1.8750612633917
aF1.0413926851582251
aF3.922569768985712
aF2.3541084391474008
aF1.3010299956639813
aF2.621176281775035
aF3.6214878645806303
aF3.6214878645806303
aF3.144262773761991
aF3.44544851426605
aF3.922569768985712
aF2.9222062774390163
aF3.2234959409623944
aF2.57978359661681
aF2.2405492482826
aF2.8808135922807914
aF0.9030899869919435
aF3.3203540328176717
aF3.019116290447073
aF2.4742162640762553
aF2.717670503002262
aF2.8808135922807914
aF3.2234959409623944
aF3.3203540328176717
aF3.922569768985712
aF3.922569768985712
aF3.922569768985712
aF2.429752280002408
aF1.462397997898956
aF3.6214878645806303
aF3.6214878645806303
aF3.44544851426605
aF3.44544851426605
aF2.968015713993642
aF0.3010299956639812
aF0.3010299956639812
aF1.7993405494535817
aF2.775974331129369
aF2.3096301674258988
aF0.7781512503836436
aF1.4913616938342726
aF0.7781512503836436
aF3.6214878645806303
aF2.3541084391474008
aF3.922569768985712
aF3.3203540328176717
aF1.7403626894942439
aF1.9344984512435677
aF3.3203540328176717
aF3.3203540328176717
aF0.3010299956639812
aF1.9294189257142926
aF2.287801729930226
aF3.922569768985712
aF1.7558748556724915
aF2.8432327780980096
aF3.922569768985712
aF3.6214878645806303
aF3.922569768985712
aF3.922569768985712
aF1.0413926851582251
aF2.808210972924222
aF3.3203540328176717
aF2.298853076409707
aF3.019116290447073
aF2.429752280002408
aF1.3979400086720377
aF2.187520720836463
aF2.506505032404872
aF1.792391689498254
aF1.3979400086720377
aF3.922569768985712
aF1.3617278360175928
aF2.230448921378274
aF2.621176281775035
aF2.9222062774390163
aF2.4899584794248346
aF0.6020599913279624
aF1.6901960800285136
aF3.922569768985712
aF3.3203540328176717
aF2.416640507338281
aF2.1072099696478683
aF3.922569768985712
aF3.922569768985712
aF3.6214878645806303
aF3.922569768985712
aF3.6214878645806303
aF3.6214878645806303
aF3.922569768985712
aF3.922569768985712
aF3.3203540328176717
aF3.922569768985712
aF3.44544851426605
aF1.9242792860618816
aF3.3203540328176717
aF3.922569768985712
aF3.922569768985712
aF3.922569768985712
aF1.5797835966168101
aF3.922569768985712
aF3.922569768985712
aF3.922569768985712
aF3.922569768985712
aF3.922569768985712
aF3.922569768985712
aF1.0413926851582251
aF2.459392487759231
aF3.6214878645806303
aF3.922569768985712
aF1.5185139398778875
aF3.922569768985712
aF3.922569768985712
aF3.922569768985712
aF3.44544851426605
aF3.922569768985712
aF2.8808135922807914
aF3.6214878645806303
aF3.922569768985712
aF2.968015713993642
aF3.922569768985712
aF1.5185139398778875
aF1.0
aF3.922569768985712
aF2.5599066250361124
aF2.621176281775035
aF2.745855195173729
aF3.2234959409623944
aF2.3909351071033793
aF2.8432327780980096
aF1.568201724066995
aF3.44544851426605
aF1.4913616938342726
aF3.6214878645806303
aF2.5237464668115646
aF3.922569768985712
aF2.1958996524092336
aF3.922569768985712
aF3.144262773761991
aF2.113943352306837
aF2.775974331129369
aF3.6214878645806303
aF1.0
aF1.505149978319906
aF1.7853298350107671
aF3.922569768985712
aF3.019116290447073
aF1.8692317197309762
aF3.44544851426605
aF3.922569768985712
aF3.922569768985712
aF1.146128035678238
aF0.8450980400142568
aF1.6532125137753437
aF2.968015713993642
aF3.44544851426605
aF3.6214878645806303
aF2.506505032404872
aF3.922569768985712
aF3.922569768985712
aF2.2576785748691846
aF1.6020599913279623
aF2.808210972924222
aF2.4899584794248346
aF1.662757831681574
aF3.922569768985712
aF2.8808135922807914
aF3.6214878645806303
aF3.3203540328176717
aF2.5415792439465807
aF2.3909351071033793
aF0.47712125471966244
aF3.44544851426605
aF2.1271047983648077
aF2.808210972924222
aF2.775974331129369
aF1.3424226808222062
aF3.3203540328176717
aF3.44544851426605
aF3.6214878645806303
aF3.144262773761991
aF1.7481880270062005
aF2.57978359661681
aF2.093421685162235
aF1.3222192947339193
aF2.2576785748691846
aF1.99563519459755
aF3.922569768985712
aF3.144262773761991
aF3.922569768985712
aF3.0773679052841563
aF3.922569768985712
aF2.2041199826559246
aF3.6214878645806303
aF3.922569768985712
aF1.3617278360175928
aF2.403120521175818
aF1.7634279935629373
aF3.6214878645806303
aF2.1367205671564067
aF3.922569768985712
aF3.144262773761991
aF3.44544851426605
aF1.2304489213782739
aF3.922569768985712
aF3.144262773761991
aF1.6434526764861874
aF3.44544851426605
aF2.143014800254095
aF2.3909351071033793
aF2.093421685162235
aF3.6214878645806303
aF1.5185139398778875
aF3.44544851426605
aF3.922569768985712
aF2.429752280002408
aF3.6214878645806303
aF3.922569768985712
aF3.6214878645806303
aF3.922569768985712
aF3.6214878645806303
aF3.6214878645806303
aF3.922569768985712
aF3.3203540328176717
aF3.3203540328176717
aF1.7323937598229686
aF2.69196510276736
aF2.8432327780980096
aF1.8129133566428555
aF2.444044795918076
aF2.250420002308894
aF2.164352855784437
aF1.462397997898956
aF3.019116290447073
aF2.403120521175818
aF2.0755469613925306
aF3.922569768985712
aF2.4899584794248346
aF3.0773679052841563
aF3.922569768985712
aF3.922569768985712
aF3.922569768985712
aF3.44544851426605
aF0.6989700043360189
aF3.922569768985712
aF3.3203540328176717
aF3.6214878645806303
aF3.922569768985712
aF1.0413926851582251
aF3.6214878645806303
aF1.3617278360175928
aF3.144262773761991
aF2.342422680822206
aF3.44544851426605
aF1.4471580313422192
aF3.922569768985712
aF3.922569768985712
aF3.6214878645806303
aF3.922569768985712
aF2.0170333392987803
aF3.922569768985712
aF2.3541084391474008
aF1.8920946026904804
aF3.922569768985712
aF3.922569768985712
aF3.922569768985712
aF3.922569768985712
aF3.922569768985712
aF3.922569768985712
aF3.6214878645806303
aF3.922569768985712
aF3.6214878645806303
aF2.2576785748691846
aF2.1958996524092336
aF2.230448921378274
aF1.2041199826559248
aF0.7781512503836436
aF3.922569768985712
aF3.6214878645806303
aF3.922569768985712
aF3.922569768985712
aF3.144262773761991
aF3.922569768985712
aF2.143014800254095
aF2.8808135922807914
aF3.6214878645806303
aF3.3203540328176717
aF2.808210972924222
aF3.44544851426605
aF2.717670503002262
aF3.6214878645806303
aF3.44544851426605
aF3.44544851426605
aF3.144262773761991
aF3.6214878645806303
aF3.6214878645806303
aF1.591064607026499
aF0.47712125471966244
aF3.3203540328176717
aF2.8432327780980096
aF2.4899584794248346
aF3.6214878645806303
aF3.44544851426605
aF2.3201462861110542
aF2.164352855784437
aF3.6214878645806303
aF3.6214878645806303
aF1.1760912590556813
aF1.1760912590556813
aF1.806179973983887
aF3.019116290447073
aF1.0791812460476249
aF2.2405492482826
aF1.0413926851582251
aF2.2041199826559246
aF2.1271047983648077
aF3.922569768985712
aF3.922569768985712
aF1.6434526764861874
aF3.6214878645806303
aF3.922569768985712
aF3.6214878645806303
aF3.922569768985712
aF3.922569768985712
aF3.922569768985712
aF3.922569768985712
aF3.922569768985712
aF3.922569768985712
aF3.922569768985712
aF2.214843848047698
aF3.922569768985712
aF3.922569768985712
aF3.922569768985712
aF1.3424226808222062
aF1.6434526764861874
aF3.922569768985712
aF3.922569768985712
aF3.922569768985712
aF1.2787536009528289
aF3.44544851426605
aF2.745855195173729
aF2.1818435879447726
aF2.5415792439465807
aF3.019116290447073
aF3.6214878645806303
aF3.44544851426605
aF3.2234959409623944
aF3.019116290447073
aF2.717670503002262
aF3.44544851426605
aF3.922569768985712
aF2.4742162640762553
aF3.6214878645806303
aF2.6434526764861874
aF3.922569768985712
aF3.2234959409623944
aF3.922569768985712
aF3.922569768985712
aF2.9222062774390163
aF3.922569768985712
aF3.922569768985712
aF1.6901960800285136
aF1.3010299956639813
aF2.298853076409707
aF2.342422680822206
aF1.3979400086720377
aF1.7993405494535817
aF2.6665179805548807
aF3.3203540328176717
aF2.69196510276736
aF3.3203540328176717
aF3.922569768985712
aF3.922569768985712
aF3.922569768985712
aF3.922569768985712
aF3.44544851426605
aF2.5998830720736876
aF3.922569768985712
aF3.922569768985712
aF3.6214878645806303
aF3.922569768985712
aF2.8432327780980096
aF1.4771212547196624
aF3.922569768985712
aF3.2234959409623944
aF1.9867717342662448
aF2.187520720836463
aF2.9222062774390163
aF1.5314789170422551
aF3.3203540328176717
aF3.6214878645806303
aF3.922569768985712
aF3.0773679052841563
aF3.922569768985712
aF2.3096301674258988
aF3.3203540328176717
aF3.922569768985712
aF3.922569768985712
aF2.57978359661681
aF3.922569768985712
aF0.3010299956639812
aF3.922569768985712
aF3.922569768985712
aF3.019116290447073
aF2.3654879848909
aF3.6214878645806303
aF0.9030899869919435
aF3.2234959409623944
aF2.187520720836463
aF3.922569768985712
aF2.57978359661681
aF3.0773679052841563
aF3.144262773761991
aF1.255272505103306
aF2.57978359661681
aF3.144262773761991
aF2.403120521175818
aF2.113943352306837
aF3.44544851426605
aF3.3203540328176717
aF1.7634279935629373
aF2.717670503002262
aF2.69196510276736
aF3.44544851426605
aF3.44544851426605
aF3.0773679052841563
aF2.164352855784437
aF3.922569768985712
aF3.922569768985712
aF3.922569768985712
aF3.44544851426605
aF3.922569768985712
aF3.922569768985712
aF3.922569768985712
aF3.922569768985712
aF2.187520720836463
aF1.4471580313422192
aF3.144262773761991
aF0.3010299956639812
aF3.922569768985712
aF2.444044795918076
aF3.2234959409623944
aF3.2234959409623944
aF2.8808135922807914
aF2.717670503002262
aF3.922569768985712
aF3.6214878645806303
aF3.922569768985712
aF3.144262773761991
aF3.922569768985712
aF3.922569768985712
aF1.9637878273455553
aF3.019116290447073
aF3.922569768985712
aF3.922569768985712
aF3.922569768985712
aF3.922569768985712
aF3.2234959409623944
aF3.6214878645806303
aF3.922569768985712
aF3.922569768985712
aF3.922569768985712
aF2.8432327780980096
aF3.6214878645806303
aF3.922569768985712
aF3.6214878645806303
aF3.2234959409623944
aF3.44544851426605
aF3.3203540328176717
aF2.093421685162235
aF3.144262773761991
aF3.144262773761991
aF3.44544851426605
aF1.8920946026904804
aF3.2234959409623944
aF0.6020599913279624
aF3.144262773761991
aF1.4771212547196624
aF0.47712125471966244
aF3.44544851426605
aF3.2234959409623944
aF3.922569768985712
aF2.1958996524092336
aF2.287801729930226
aF3.922569768985712
aF3.922569768985712
aF3.922569768985712
aF3.922569768985712
aF1.7708520116421442
aF1.9242792860618816
aF3.922569768985712
aF2.5599066250361124
aF2.0755469613925306
aF0.3010299956639812
aF0.3010299956639812
aF2.9222062774390163
aF3.2234959409623944
aF3.3203540328176717
aF1.8195439355418688
aF2.8432327780980096
aF3.2234959409623944
aF3.2234959409623944
aF3.6214878645806303
aF2.3783979009481375
aF0.9030899869919435
aF0.8450980400142568
aF2.808210972924222
aF1.4471580313422192
aF3.144262773761991
aF3.6214878645806303
aF2.57978359661681
aF3.922569768985712
aF1.9867717342662448
aF2.506505032404872
aF3.144262773761991
aF3.019116290447073
aF3.44544851426605
aF2.745855195173729
aF2.69196510276736
aF2.745855195173729
aF2.444044795918076
aF3.922569768985712
aF3.6214878645806303
aF3.922569768985712
aF1.414973347970818
aF1.414973347970818
aF3.6214878645806303
aF3.6214878645806303
aF2.968015713993642
aF3.6214878645806303
aF3.44544851426605
aF3.6214878645806303
aF3.44544851426605
aF3.922569768985712
aF2.717670503002262
aF2.8808135922807914
aF3.6214878645806303
aF3.922569768985712
aF3.922569768985712
aF1.8195439355418688
aF3.44544851426605
aF2.2227164711475833
aF2.6434526764861874
aF3.0773679052841563
aF3.3203540328176717
aF3.0773679052841563
aF2.3096301674258988
aF3.2234959409623944
aF3.3203540328176717
aF2.9222062774390163
aF3.6214878645806303
aF2.3541084391474008
aF3.922569768985712
aF3.922569768985712
aF3.922569768985712
aF3.922569768985712
aF3.2234959409623944
aF2.6665179805548807
aF2.968015713993642
aF3.44544851426605
aF3.44544851426605
aF3.6214878645806303
aF2.69196510276736
aF2.506505032404872
aF3.6214878645806303
aF2.416640507338281
aF3.6214878645806303
aF3.6214878645806303
aF2.100370545117563
aF2.775974331129369
aF3.922569768985712
aF3.6214878645806303
aF1.2304489213782739
aF3.44544851426605
aF2.8808135922807914
aF3.0773679052841563
aF2.69196510276736
aF3.6214878645806303
aF3.144262773761991
aF2.164352855784437
aF2.3909351071033793
aF2.3909351071033793
aF2.143014800254095
aF2.12057393120585
aF2.214843848047698
aF2.4899584794248346
aF3.922569768985712
aF1.6812412373755872
aF1.6532125137753437
aF3.922569768985712
aF1.8325089127062364
aF3.922569768985712
aF3.922569768985712
aF2.214843848047698
aF2.6665179805548807
aF3.3203540328176717
aF3.922569768985712
aF3.6214878645806303
aF3.922569768985712
aF3.922569768985712
aF3.2234959409623944
aF2.459392487759231
aF3.922569768985712
aF3.922569768985712
aF2.968015713993642
aF1.6901960800285136
aF2.5415792439465807
aF2.2671717284030137
aF3.922569768985712
aF3.922569768985712
aF1.7634279935629373
aF3.922569768985712
aF3.6214878645806303
aF3.922569768985712
aF3.922569768985712
aF3.019116290447073
aF3.922569768985712
aF0.3010299956639812
aF1.4471580313422192
aF3.922569768985712
aF3.922569768985712
aF2.429752280002408
aF3.6214878645806303
aF3.44544851426605
aF3.922569768985712
aF3.922569768985712
aF3.922569768985712
aF3.922569768985712
aF3.922569768985712
aF3.922569768985712
aF1.7993405494535817
aF2.5599066250361124
aF2.69196510276736
aF2.5998830720736876
aF3.6214878645806303
aF3.6214878645806303
aF3.144262773761991
aF3.6214878645806303
aF3.922569768985712
aF1.845098040014257
aF1.6334684555795864
aF1.5797835966168101
aF3.44544851426605
aF3.3203540328176717
aF3.922569768985712
aF3.922569768985712
aF2.3783979009481375
aF2.4742162640762553
aF3.0773679052841563
aF2.2671717284030137
aF2.5998830720736876
aF3.44544851426605
aF2.5237464668115646
aF1.3010299956639813
aF3.0773679052841563
aF2.808210972924222
aF2.808210972924222
aF3.922569768985712
aF3.019116290447073
aF3.922569768985712
aF3.922569768985712
aF2.5237464668115646
aF2.8808135922807914
aF0.47712125471966244
aF1.99563519459755
aF1.9867717342662448
aF3.922569768985712
aF2.5415792439465807
aF3.144262773761991
aF1.6127838567197355
aF3.922569768985712
aF3.922569768985712
aF2.9222062774390163
aF3.922569768985712
aF3.922569768985712
aF3.922569768985712
aF2.506505032404872
aF2.9222062774390163
aF3.6214878645806303
aF0.7781512503836436
aF0.3010299956639812
aF3.0773679052841563
aF3.922569768985712
aF1.7160033436347992
aF3.922569768985712
aF1.6434526764861874
aF2.287801729930226
aF3.144262773761991
aF1.9867717342662448
aF3.0773679052841563
aF3.922569768985712
aF2.8808135922807914
aF2.6434526764861874
aF1.792391689498254
aF2.69196510276736
aF3.922569768985712
aF3.922569768985712
aF1.2041199826559248
aF3.6214878645806303
aF3.3203540328176717
aF3.922569768985712
aF1.9912260756924949
aF3.922569768985712
aF3.922569768985712
aF3.6214878645806303
aF1.5563025007672873
aF3.2234959409623944
aF2.968015713993642
aF2.459392487759231
aF3.922569768985712
aF2.775974331129369
aF1.5797835966168101
aF3.922569768985712
aF2.214843848047698
aF3.922569768985712
aF2.8808135922807914
aF3.922569768985712
aF3.6214878645806303
aF2.717670503002262
aF3.922569768985712
aF3.922569768985712
aF3.3203540328176717
aF3.44544851426605
aF3.922569768985712
aF3.019116290447073
aF1.5314789170422551
aF1.5314789170422551
aF3.922569768985712
aF3.019116290447073
aF2.745855195173729
aF3.922569768985712
aF3.2234959409623944
aF2.2227164711475833
aF3.922569768985712
aF3.922569768985712
aF3.2234959409623944
aF1.2787536009528289
aF2.5998830720736876
aF3.922569768985712
aF2.403120521175818
aF2.3201462861110542
aF3.2234959409623944
aF3.6214878645806303
aF3.922569768985712
aF2.717670503002262
aF1.6232492903979006
aF3.3203540328176717
aF3.922569768985712
aF3.922569768985712
aF2.621176281775035
aF3.922569768985712
aF3.922569768985712
aF3.019116290447073
aF3.6214878645806303
aF2.808210972924222
aF0.6989700043360189
aF1.863322860120456
aF3.44544851426605
aF3.0773679052841563
aF0.6020599913279624
aF3.922569768985712
aF3.922569768985712
aF2.69196510276736
aF2.2405492482826
aF3.3203540328176717
aF3.922569768985712
aF3.922569768985712
aF3.922569768985712
aF3.019116290447073
aF3.6214878645806303
aF2.3654879848909
aF3.144262773761991
aF2.9222062774390163
aF3.2234959409623944
aF3.922569768985712
aF3.922569768985712
aF2.3541084391474008
aF2.69196510276736
aF3.922569768985712
aF3.44544851426605
aF3.922569768985712
aF3.922569768985712
aF2.5998830720736876
aF3.6214878645806303
aF2.8432327780980096
aF3.144262773761991
aF3.019116290447073
aF1.591064607026499
aF3.6214878645806303
aF3.144262773761991
aF1.5440680443502757
aF3.6214878645806303
aF1.9395192526186185
aF3.44544851426605
aF3.6214878645806303
aF0.9542425094393249
aF3.6214878645806303
aF3.6214878645806303
aF2.5237464668115646
aF3.019116290447073
aF0.47712125471966244
aF3.922569768985712
aF3.6214878645806303
aF3.6214878645806303
aF1.9493900066449128
aF3.44544851426605
aF3.44544851426605
aF3.144262773761991
aF3.922569768985712
aF3.44544851426605
aF3.922569768985712
aF2.3654879848909
aF2.3096301674258988
aF3.2234959409623944
aF3.922569768985712
aF3.44544851426605
aF3.922569768985712
aF3.6214878645806303
aF3.922569768985712
aF3.6214878645806303
aF0.3010299956639812
aF3.922569768985712
aF3.6214878645806303
aF3.6214878645806303
aF3.144262773761991
aF3.44544851426605
aF2.621176281775035
aF3.44544851426605
aF2.459392487759231
aF2.69196510276736
aF3.922569768985712
aF3.44544851426605
aF2.745855195173729
aF3.922569768985712
aF2.8808135922807914
aF3.922569768985712
aF1.3424226808222062
aF1.6901960800285136
aF3.922569768985712
aF2.4742162640762553
aF2.9222062774390163
aF3.6214878645806303
aF3.6214878645806303
aF2.5415792439465807
aF2.459392487759231
aF3.3203540328176717
aF3.0773679052841563
aF3.3203540328176717
aF3.3203540328176717
aF0.47712125471966244
aF3.922569768985712
aF3.6214878645806303
aF3.922569768985712
aF1.8920946026904804
aF2.8808135922807914
aF3.6214878645806303
aF2.69196510276736
aF2.5599066250361124
aF2.5599066250361124
aF2.69196510276736
aF3.922569768985712
aF2.8432327780980096
aF2.5599066250361124
aF3.922569768985712
aF3.3203540328176717
aF3.3203540328176717
aF3.3203540328176717
aF3.3203540328176717
aF3.6214878645806303
aF3.922569768985712
aF3.922569768985712
aF2.808210972924222
aF1.1139433523068367
aF2.5415792439465807
aF3.922569768985712
aF3.922569768985712
aF3.6214878645806303
aF3.6214878645806303
aF3.3203540328176717
aF3.922569768985712
aF3.922569768985712
aF3.922569768985712
aF3.922569768985712
aF3.922569768985712
aF3.922569768985712
aF3.922569768985712
aF1.7853298350107671
aF3.6214878645806303
aF3.922569768985712
aF3.44544851426605
aF2.968015713993642
aF2.5415792439465807
aF3.6214878645806303
aF3.6214878645806303
aF3.6214878645806303
aF3.922569768985712
aF3.922569768985712
aF1.9030899869919435
aF2.808210972924222
aF3.2234959409623944
aF2.6434526764861874
aF3.2234959409623944
aF3.0773679052841563
aF3.922569768985712
aF3.6214878645806303
aF3.922569768985712
aF3.922569768985712
aF3.922569768985712
aF3.922569768985712
aF2.429752280002408
aF3.922569768985712
aF2.298853076409707
aF3.6214878645806303
aF3.922569768985712
aF3.6214878645806303
aF2.403120521175818
aF3.922569768985712
aF3.922569768985712
aF3.44544851426605
aF3.6214878645806303
aF3.019116290447073
aF3.0773679052841563
aF3.3203540328176717
aF3.0773679052841563
aF3.3203540328176717
aF3.6214878645806303
aF3.6214878645806303
aF3.922569768985712
aF3.922569768985712
aF3.922569768985712
aF3.6214878645806303
aF3.2234959409623944
aF3.922569768985712
aF3.922569768985712
aF3.922569768985712
aF3.2234959409623944
aF2.57978359661681
aF3.922569768985712
aF3.6214878645806303
aF3.922569768985712
aF2.8808135922807914
aF3.922569768985712
aF2.1492191126553797
aF3.144262773761991
aF3.2234959409623944
aF3.922569768985712
aF3.922569768985712
aF3.922569768985712
aF3.922569768985712
aF3.922569768985712
aF3.0773679052841563
aF3.922569768985712
aF2.775974331129369
aF1.845098040014257
aF2.459392487759231
aF2.808210972924222
aF2.775974331129369
aF3.2234959409623944
aF2.3909351071033793
aF3.3203540328176717
aF3.922569768985712
aF3.44544851426605
aF3.44544851426605
aF2.278753600952829
aF2.57978359661681
aF2.621176281775035
aF2.298853076409707
aF2.5599066250361124
aF2.0170333392987803
aF1.2787536009528289
aF3.2234959409623944
aF3.144262773761991
aF3.44544851426605
aF3.2234959409623944
aF2.9222062774390163
aF3.3203540328176717
aF1.4313637641589874
aF3.922569768985712
aF3.44544851426605
aF3.922569768985712
aF1.6989700043360187
aF3.44544851426605
aF3.44544851426605
aF3.144262773761991
aF2.6434526764861874
aF3.019116290447073
aF2.775974331129369
aF2.968015713993642
aF3.6214878645806303
aF1.99563519459755
aF0.3010299956639812
aF1.8976270912904414
aF3.922569768985712
aF3.922569768985712
aF3.44544851426605
aF3.6214878645806303
aF3.922569768985712
aF2.1583624920952498
aF3.6214878645806303
aF2.57978359661681
aF3.6214878645806303
aF3.44544851426605
aF3.922569768985712
aF3.2234959409623944
aF3.019116290447073
aF2.808210972924222
aF2.69196510276736
aF1.5563025007672873
aF3.144262773761991
aF1.146128035678238
aF3.44544851426605
aF3.6214878645806303
aF3.6214878645806303
aF3.922569768985712
aF3.922569768985712
aF2.0569048513364727
aF2.459392487759231
aF3.2234959409623944
aF3.0773679052841563
aF3.922569768985712
aF1.0791812460476249
aF3.6214878645806303
aF3.0773679052841563
aF3.922569768985712
aF2.187520720836463
aF3.922569768985712
aF2.444044795918076
aF3.44544851426605
aF1.9030899869919435
aF2.621176281775035
aF3.922569768985712
aF3.44544851426605
aF3.6214878645806303
aF2.745855195173729
aF3.6214878645806303
aF3.922569768985712
aF3.922569768985712
aF3.922569768985712
aF2.8808135922807914
aF3.144262773761991
aF3.922569768985712
aF3.922569768985712
aF2.968015713993642
aF3.6214878645806303
aF3.922569768985712
aF2.6434526764861874
aF3.922569768985712
aF3.922569768985712
aF3.922569768985712
aF2.429752280002408
aF3.922569768985712
aF3.019116290447073
aF2.968015713993642
aF3.3203540328176717
aF2.968015713993642
aF3.922569768985712
aF3.6214878645806303
aF3.44544851426605
aF2.330413773349191
aF3.6214878645806303
aF2.3541084391474008
aF1.8325089127062364
aF3.922569768985712
aF3.6214878645806303
aF2.69196510276736
aF2.429752280002408
aF2.416640507338281
aF2.444044795918076
aF3.922569768985712
aF3.922569768985712
aF3.922569768985712
aF3.922569768985712
aF2.330413773349191
aF3.44544851426605
aF3.3203540328176717
aF3.144262773761991
aF3.0773679052841563
aF2.9222062774390163
aF3.6214878645806303
aF3.3203540328176717
aF3.922569768985712
aF3.3203540328176717
aF3.0773679052841563
aF3.922569768985712
aF3.922569768985712
aF2.250420002308894
aF3.922569768985712
aF3.922569768985712
aF3.922569768985712
aF3.922569768985712
aF3.922569768985712
aF3.922569768985712
aF3.922569768985712
aF3.2234959409623944
aF3.922569768985712
aF3.922569768985712
aF3.922569768985712
aF3.6214878645806303
aF2.8432327780980096
aF3.922569768985712
aF3.3203540328176717
aF3.44544851426605
aF2.69196510276736
aF3.0773679052841563
aF1.662757831681574
aF3.0773679052841563
aF3.922569768985712
aF3.922569768985712
aF3.144262773761991
aF3.922569768985712
aF2.0170333392987803
aF3.2234959409623944
aF3.922569768985712
aF3.922569768985712
aF3.2234959409623944
aF2.6665179805548807
aF3.922569768985712
aF3.922569768985712
aF3.922569768985712
aF3.922569768985712
aF3.922569768985712
aF3.6214878645806303
aF3.922569768985712
aF3.922569768985712
aF3.922569768985712
aF3.922569768985712
aF3.922569768985712
aF3.2234959409623944
aF3.144262773761991
aF3.3203540328176717
aF3.6214878645806303
aF3.6214878645806303
aF3.6214878645806303
aF3.922569768985712
aF3.6214878645806303
aF3.6214878645806303
aF3.922569768985712
aF1.8692317197309762
aF1.8388490907372552
aF3.922569768985712
aF3.922569768985712
aF3.922569768985712
aF1.99563519459755
aF0.3010299956639812
aF3.6214878645806303
aF2.8432327780980096
aF3.6214878645806303
aF3.6214878645806303
aF3.6214878645806303
aF3.922569768985712
aF3.44544851426605
aF3.6214878645806303
aF3.922569768985712
aF3.922569768985712
aF3.6214878645806303
aF1.255272505103306
aF3.922569768985712
aF3.922569768985712
aF2.2576785748691846
aF0.3010299956639812
aF2.968015713993642
aF3.922569768985712
aF3.922569768985712
aF3.0773679052841563
aF3.6214878645806303
aF3.44544851426605
aF3.922569768985712
aF2.3909351071033793
aF3.922569768985712
aF3.6214878645806303
aF3.922569768985712
aF2.9222062774390163
aF0.8450980400142568
aF3.922569768985712
aF3.922569768985712
aF3.922569768985712
aF3.922569768985712
aF3.922569768985712
aF3.922569768985712
aF3.922569768985712
aF3.019116290447073
aF3.6214878645806303
aF3.3203540328176717
aF3.019116290447073
aF3.922569768985712
aF3.922569768985712
aF3.6214878645806303
aF3.922569768985712
aF3.922569768985712
aF3.922569768985712
aF3.922569768985712
aF2.429752280002408
aF3.0773679052841563
aF3.6214878645806303
aF2.3654879848909
aF3.144262773761991
aF2.1072099696478683
aF3.3203540328176717
aF3.6214878645806303
aF3.6214878645806303
aF3.44544851426605
aF3.6214878645806303
aF0.47712125471966244
aF3.44544851426605
aF2.8808135922807914
aF3.6214878645806303
aF3.44544851426605
aF3.6214878645806303
aF3.6214878645806303
aF3.6214878645806303
aF3.6214878645806303
aF3.922569768985712
aF3.6214878645806303
aF1.2041199826559248
aF1.2304489213782739
aF3.3203540328176717
aF3.922569768985712
aF1.9777236052888478
aF2.3783979009481375
aF3.922569768985712
aF3.922569768985712
aF3.922569768985712
aF2.968015713993642
aF3.922569768985712
aF3.2234959409623944
aF3.019116290447073
aF1.462397997898956
aF3.6214878645806303
aF2.621176281775035
aF1.6812412373755872
aF2.5415792439465807
aF2.0681858617461617
aF3.144262773761991
aF3.019116290447073
aF3.3203540328176717
aF3.922569768985712
aF3.922569768985712
aF1.8808135922807914
aF3.6214878645806303
aF3.6214878645806303
aF3.6214878645806303
aF3.922569768985712
aF2.250420002308894
aF3.6214878645806303
aF2.506505032404872
aF3.6214878645806303
aF3.922569768985712
aF3.922569768985712
aF3.44544851426605
aF2.6434526764861874
aF3.922569768985712
aF2.4899584794248346
aF3.3203540328176717
aF2.808210972924222
aF2.0569048513364727
aF3.6214878645806303
aF3.144262773761991
aF3.44544851426605
aF3.922569768985712
aF3.44544851426605
aF3.6214878645806303
aF2.69196510276736
aF3.922569768985712
aF3.922569768985712
aF3.922569768985712
aF3.922569768985712
aF2.808210972924222
aF3.922569768985712
aF2.717670503002262
aF2.6434526764861874
aF3.922569768985712
aF3.6214878645806303
aF3.44544851426605
aF3.44544851426605
aF2.8432327780980096
aF3.2234959409623944
aF2.330413773349191
aF0.6989700043360189
aF3.6214878645806303
aF3.922569768985712
aF3.6214878645806303
aF2.330413773349191
aF3.922569768985712
aF3.3203540328176717
aF3.44544851426605
aF2.9222062774390163
aF2.278753600952829
aF3.922569768985712
aF3.0773679052841563
aF3.922569768985712
aF3.922569768985712
aF3.922569768985712
aF1.0
aF3.922569768985712
aF3.922569768985712
aF3.922569768985712
aF3.3203540328176717
aF3.922569768985712
aF3.922569768985712
aF2.9222062774390163
aF3.3203540328176717
aF3.3203540328176717
aF3.3203540328176717
aF2.808210972924222
aF1.591064607026499
aF2.968015713993642
aF1.8260748027008264
aF3.922569768985712
aF3.0773679052841563
aF3.922569768985712
aF0.7781512503836436
aF3.6214878645806303
aF3.6214878645806303
aF3.44544851426605
aF3.6214878645806303
aF3.922569768985712
aF3.922569768985712
aF3.6214878645806303
aF3.3203540328176717
aF1.4313637641589874
aF3.144262773761991
aF0.9542425094393249
aF3.922569768985712
aF3.922569768985712
aF2.69196510276736
aF1.4313637641589874
aF3.922569768985712
aF2.4899584794248346
aF3.922569768985712
aF2.8808135922807914
aF3.2234959409623944
aF3.922569768985712
aF3.0773679052841563
aF3.922569768985712
aF3.44544851426605
aF3.922569768985712
aF3.922569768985712
aF3.922569768985712
aF2.745855195173729
aF3.44544851426605
aF1.8976270912904414
aF3.3203540328176717
aF1.8573324964312685
aF3.3203540328176717
aF3.922569768985712
aF2.164352855784437
aF3.922569768985712
aF3.922569768985712
aF3.922569768985712
aF3.144262773761991
aF3.019116290447073
aF1.6720978579357175
aF3.6214878645806303
aF3.6214878645806303
aF3.6214878645806303
aF3.6214878645806303
aF1.0791812460476249
aF3.3203540328176717
aF3.922569768985712
aF3.44544851426605
aF3.922569768985712
aF3.6214878645806303
aF3.922569768985712
aF2.278753600952829
aF3.922569768985712
aF3.6214878645806303
aF2.4899584794248346
aF1.462397997898956
aF2.8432327780980096
aF3.3203540328176717
aF3.6214878645806303
aF2.444044795918076
aF3.6214878645806303
aF2.0
aF2.164352855784437
aF2.745855195173729
aF0.8450980400142568
aF3.6214878645806303
aF1.0791812460476249
aF3.922569768985712
aF3.922569768985712
aF3.44544851426605
aF3.019116290447073
aF3.44544851426605
aF3.6214878645806303
aF3.44544851426605
aF3.0773679052841563
aF3.019116290447073
aF1.414973347970818
aF2.5998830720736876
aF2.8432327780980096
aF3.6214878645806303
aF3.44544851426605
aF3.3203540328176717
aF3.922569768985712
aF3.922569768985712
aF3.922569768985712
aF3.922569768985712
aF3.922569768985712
aF2.278753600952829
aF2.2576785748691846
aF2.287801729930226
aF3.922569768985712
aF3.44544851426605
aF2.717670503002262
aF3.922569768985712
aF3.922569768985712
aF3.922569768985712
aF3.44544851426605
aF1.9912260756924949
aF3.922569768985712
aF2.6434526764861874
aF2.6434526764861874
aF2.9222062774390163
aF2.8432327780980096
aF2.1958996524092336
aF3.019116290447073
aF3.922569768985712
aF3.44544851426605
aF3.44544851426605
aF3.922569768985712
aF3.922569768985712
aF2.4899584794248346
aF1.9493900066449128
aF3.6214878645806303
aF1.9138138523837167
aF3.922569768985712
aF3.144262773761991
aF3.922569768985712
aF3.922569768985712
aF3.922569768985712
aF3.922569768985712
aF3.922569768985712
aF3.922569768985712
aF3.922569768985712
aF2.8808135922807914
aF3.6214878645806303
aF2.506505032404872
aF3.6214878645806303
aF2.5237464668115646
aF2.968015713993642
aF3.019116290447073
aF1.6532125137753437
aF3.922569768985712
aF3.3203540328176717
aF3.44544851426605
aF3.6214878645806303
aF3.44544851426605
aF3.144262773761991
aF3.6214878645806303
aF3.144262773761991
aF3.0773679052841563
aF3.3203540328176717
aF2.3909351071033793
aF3.6214878645806303
aF3.6214878645806303
aF2.69196510276736
aF3.6214878645806303
aF2.4899584794248346
aF3.6214878645806303
aF3.922569768985712
aF2.6434526764861874
aF3.922569768985712
aF0.0
aF1.7481880270062005
aF3.922569768985712
aF3.922569768985712
aF3.922569768985712
aF3.922569768985712
aF3.922569768985712
aF2.717670503002262
aF1.568201724066995
aF3.922569768985712
aF1.5440680443502757
aF3.922569768985712
aF3.144262773761991
aF2.57978359661681
aF3.6214878645806303
aF3.922569768985712
aF3.144262773761991
aF2.5237464668115646
aF3.922569768985712
aF3.922569768985712
aF3.6214878645806303
aF3.922569768985712
aF3.922569768985712
aF3.922569768985712
aF3.922569768985712
aF3.922569768985712
aF3.6214878645806303
aF3.44544851426605
aF3.922569768985712
aF2.1583624920952498
aF3.44544851426605
aF3.922569768985712
aF3.6214878645806303
aF3.922569768985712
aF3.922569768985712
aF3.922569768985712
aF1.505149978319906
aF1.662757831681574
aF2.968015713993642
aF3.922569768985712
aF3.922569768985712
aF3.922569768985712
aF2.1367205671564067
aF3.6214878645806303
aF3.922569768985712
aF2.143014800254095
aF3.922569768985712
aF3.0773679052841563
aF3.44544851426605
aF3.6214878645806303
aF3.3203540328176717
aF3.922569768985712
aF1.7323937598229686
aF3.922569768985712
aF3.922569768985712
aF3.922569768985712
aF3.922569768985712
aF3.44544851426605
aF3.922569768985712
aF2.745855195173729
aF3.922569768985712
aF1.8325089127062364
aF2.5237464668115646
aF3.44544851426605
aF3.922569768985712
aF1.2787536009528289
aF3.44544851426605
aF3.922569768985712
aF3.922569768985712
aF2.143014800254095
aF2.9222062774390163
aF2.5237464668115646
aF2.459392487759231
aF3.922569768985712
aF3.922569768985712
aF3.6214878645806303
aF2.089905111439398
aF3.922569768985712
aF2.3096301674258988
aF1.0791812460476249
aF2.429752280002408
aF2.69196510276736
aF2.8808135922807914
aF2.444044795918076
aF0.0
aF2.8432327780980096
aF0.3010299956639812
aF3.6214878645806303
aF3.3203540328176717
aF3.3203540328176717
aF3.144262773761991
aF3.2234959409623944
aF2.968015713993642
aF3.44544851426605
aF2.9222062774390163
aF3.922569768985712
aF3.922569768985712
aF3.922569768985712
aF3.922569768985712
aF3.922569768985712
aF3.922569768985712
aF3.44544851426605
aF3.922569768985712
aF3.6214878645806303
aF3.44544851426605
aF3.144262773761991
aF3.922569768985712
aF2.230448921378274
aF3.922569768985712
aF3.3203540328176717
aF3.6214878645806303
aF3.922569768985712
aF3.6214878645806303
aF3.922569768985712
aF2.6665179805548807
aF3.6214878645806303
aF3.922569768985712
aF3.019116290447073
aF3.019116290447073
aF3.922569768985712
aF2.968015713993642
aF3.2234959409623944
aF3.0773679052841563
aF2.0569048513364727
aF3.922569768985712
aF3.6214878645806303
aF2.444044795918076
aF3.922569768985712
aF3.44544851426605
aF3.44544851426605
aF3.922569768985712
aF3.44544851426605
aF3.3203540328176717
aF2.2227164711475833
aF2.9222062774390163
aF3.922569768985712
aF3.6214878645806303
aF3.922569768985712
aF3.922569768985712
aF3.2234959409623944
aF3.6214878645806303
aF3.922569768985712
aF3.922569768985712
aF3.44544851426605
aF3.44544851426605
aF2.298853076409707
aF3.6214878645806303
aF3.922569768985712
aF3.922569768985712
aF3.922569768985712
aF3.922569768985712
aF3.922569768985712
aF3.922569768985712
aF2.9222062774390163
aF0.9542425094393249
aF2.9222062774390163
aF2.9222062774390163
aF2.9222062774390163
aF2.5998830720736876
aF1.9731278535996986
aF3.922569768985712
aF1.4913616938342726
aF3.44544851426605
aF3.6214878645806303
aF2.5415792439465807
aF3.44544851426605
aF1.5185139398778875
aF3.6214878645806303
aF3.2234959409623944
aF3.6214878645806303
aF3.922569768985712
aF3.922569768985712
aF3.2234959409623944
aF3.6214878645806303
aF3.922569768985712
aF3.44544851426605
aF1.4913616938342726
aF2.9222062774390163
aF3.44544851426605
aF3.3203540328176717
aF3.922569768985712
aF2.775974331129369
aF2.775974331129369
aF2.808210972924222
aF3.922569768985712
aF3.6214878645806303
aF3.44544851426605
aF3.922569768985712
aF1.4771212547196624
aF3.44544851426605
aF3.922569768985712
aF3.922569768985712
aF3.922569768985712
aF3.44544851426605
aF1.9822712330395684
aF3.44544851426605
aF3.6214878645806303
aF2.808210972924222
aF3.922569768985712
aF3.922569768985712
aF3.2234959409623944
aF2.717670503002262
aF3.922569768985712
aF3.922569768985712
aF3.922569768985712
aF3.6214878645806303
aF3.6214878645806303
aF3.44544851426605
aF3.6214878645806303
aF3.922569768985712
aF2.968015713993642
aF2.187520720836463
aF3.922569768985712
aF3.922569768985712
aF3.3203540328176717
aF3.019116290447073
aF2.4742162640762553
aF3.922569768985712
aF3.144262773761991
aF3.922569768985712
aF3.922569768985712
aF3.922569768985712
aF3.922569768985712
aF3.922569768985712
aF1.806179973983887
aF3.6214878645806303
aF2.745855195173729
aF2.968015713993642
aF2.968015713993642
aF3.922569768985712
aF3.922569768985712
aF3.6214878645806303
aF2.8808135922807914
aF2.9222062774390163
aF3.44544851426605
aF3.44544851426605
aF3.44544851426605
aF3.6214878645806303
aF3.922569768985712
aF3.922569768985712
aF3.2234959409623944
aF3.922569768985712
aF3.44544851426605
aF3.922569768985712
aF3.2234959409623944
aF3.922569768985712
aF3.922569768985712
aF3.2234959409623944
aF3.144262773761991
aF3.922569768985712
aF3.6214878645806303
aF3.019116290447073
aF1.4313637641589874
aF3.922569768985712
aF3.6214878645806303
aF3.922569768985712
aF3.922569768985712
aF3.922569768985712
aF1.724275869600789
aF3.922569768985712
aF3.922569768985712
aF3.922569768985712
aF3.922569768985712
aF1.5314789170422551
aF3.922569768985712
aF3.6214878645806303
aF1.8976270912904414
aF3.6214878645806303
aF3.019116290447073
aF3.6214878645806303
aF3.6214878645806303
aF3.922569768985712
aF3.922569768985712
aF3.44544851426605
aF3.3203540328176717
aF3.2234959409623944
aF3.922569768985712
aF3.922569768985712
aF1.3222192947339193
aF2.5599066250361124
aF3.3203540328176717
aF2.3201462861110542
aF3.922569768985712
aF2.4899584794248346
aF2.968015713993642
aF3.922569768985712
aF3.6214878645806303
aF2.968015713993642
aF1.8920946026904804
aF1.6720978579357175
aF3.6214878645806303
aF2.287801729930226
aF3.2234959409623944
aF3.2234959409623944
aF3.2234959409623944
aF3.44544851426605
aF3.144262773761991
aF2.2041199826559246
aF2.0211892990699383
aF3.922569768985712
aF3.44544851426605
aF3.922569768985712
aF3.922569768985712
aF3.922569768985712
aF2.968015713993642
aF3.922569768985712
aF3.6214878645806303
aF3.922569768985712
aF3.922569768985712
aF3.144262773761991
aF2.9222062774390163
aF2.808210972924222
aF3.2234959409623944
aF3.922569768985712
aF2.5415792439465807
aF2.403120521175818
aF1.662757831681574
aF3.922569768985712
aF3.922569768985712
aF2.5415792439465807
aF3.6214878645806303
aF2.3783979009481375
aF2.0755469613925306
aF2.416640507338281
aF2.444044795918076
aF3.6214878645806303
aF3.6214878645806303
aF3.3203540328176717
aF3.922569768985712
aF3.922569768985712
aF3.2234959409623944
aF3.922569768985712
aF3.6214878645806303
aF1.255272505103306
aF3.6214878645806303
aF3.6214878645806303
aF3.6214878645806303
aF3.2234959409623944
aF3.6214878645806303
aF3.44544851426605
aF3.922569768985712
aF3.0773679052841563
aF3.922569768985712
aF3.6214878645806303
aF3.922569768985712
aF1.7323937598229686
aF3.922569768985712
aF3.922569768985712
aF3.922569768985712
aF3.922569768985712
aF3.2234959409623944
aF3.922569768985712
aF3.922569768985712
aF3.922569768985712
aF3.922569768985712
aF3.922569768985712
aF3.922569768985712
aF3.922569768985712
aF3.3203540328176717
aF3.0773679052841563
aF3.922569768985712
aF1.8976270912904414
aF3.922569768985712
aF3.922569768985712
aF3.2234959409623944
aF3.922569768985712
aF3.922569768985712
aF3.0773679052841563
aF3.922569768985712
aF3.922569768985712
aF3.922569768985712
aF3.922569768985712
aF3.922569768985712
aF3.922569768985712
aF3.922569768985712
aF3.922569768985712
aF3.922569768985712
aF3.922569768985712
aF2.5237464668115646
aF3.3203540328176717
aF3.922569768985712
aF3.922569768985712
aF3.922569768985712
aF3.922569768985712
aF3.922569768985712
aF3.44544851426605
aF3.44544851426605
aF3.44544851426605
aF3.922569768985712
aF3.922569768985712
aF3.922569768985712
aF3.6214878645806303
aF3.922569768985712
aF3.2234959409623944
aF3.6214878645806303
aF2.3654879848909
aF3.44544851426605
aF3.44544851426605
aF3.44544851426605
aF3.922569768985712
aF1.380211241711606
aF3.922569768985712
aF2.8808135922807914
aF3.922569768985712
aF3.6214878645806303
aF3.922569768985712
aF2.968015713993642
aF3.922569768985712
aF2.164352855784437
aF3.922569768985712
aF3.3203540328176717
aF3.144262773761991
aF2.775974331129369
aF2.9222062774390163
aF3.922569768985712
aF2.808210972924222
aF3.922569768985712
aF2.808210972924222
aF3.922569768985712
aF3.922569768985712
aF3.922569768985712
aF3.922569768985712
aF3.922569768985712
aF3.922569768985712
aF3.922569768985712
aF3.922569768985712
aF3.922569768985712
aF3.922569768985712
aF3.6214878645806303
aF3.3203540328176717
aF3.019116290447073
aF1.8692317197309762
aF3.922569768985712
aF3.922569768985712
aF3.144262773761991
aF3.922569768985712
aF3.922569768985712
aF3.922569768985712
aF1.9242792860618816
aF3.922569768985712
aF3.0773679052841563
aF3.922569768985712
aF2.9222062774390163
aF3.922569768985712
aF3.922569768985712
aF3.922569768985712
aF3.6214878645806303
aF3.922569768985712
aF2.8808135922807914
aF3.922569768985712
aF3.922569768985712
aF3.6214878645806303
aF0.0
aF3.922569768985712
aF3.44544851426605
aF3.922569768985712
aF3.6214878645806303
aF3.6214878645806303
aF1.9294189257142926
aF3.922569768985712
aF3.922569768985712
aF2.968015713993642
aF3.3203540328176717
aF3.922569768985712
aF3.922569768985712
aF3.6214878645806303
aF3.019116290447073
aF3.44544851426605
aF3.922569768985712
aF3.6214878645806303
aF3.019116290447073
aF3.922569768985712
aF3.3203540328176717
aF2.968015713993642
aF3.922569768985712
aF3.922569768985712
aF3.922569768985712
aF3.922569768985712
aF2.9222062774390163
aF3.922569768985712
aF2.968015713993642
aF3.922569768985712
aF3.922569768985712
aF3.922569768985712
aF3.6214878645806303
aF3.922569768985712
aF3.922569768985712
aF3.922569768985712
aF2.968015713993642
aF3.922569768985712
aF3.922569768985712
aF3.922569768985712
aF3.6214878645806303
aF3.922569768985712
aF2.506505032404872
aF3.922569768985712
aF3.922569768985712
aF3.922569768985712
aF3.6214878645806303
aF3.922569768985712
aF3.922569768985712
aF3.44544851426605
aF3.6214878645806303
aF3.2234959409623944
aF3.922569768985712
aF3.922569768985712
aF3.922569768985712
aF3.922569768985712
aF3.3203540328176717
aF2.9222062774390163
aF3.6214878645806303
aF1.146128035678238
aF3.6214878645806303
aF3.44544851426605
aF3.2234959409623944
aF3.922569768985712
aF3.2234959409623944
aF3.019116290447073
aF1.8976270912904414
aF1.8573324964312685
aF1.8920946026904804
aF2.0681858617461617
aF3.922569768985712
aF3.44544851426605
aF3.922569768985712
aF3.922569768985712
aF3.3203540328176717
aF2.0569048513364727
aF2.0293837776852097
aF1.9777236052888478
aF3.2234959409623944
aF3.922569768985712
aF3.922569768985712
aF3.0773679052841563
aF2.968015713993642
aF3.922569768985712
aF3.922569768985712
aF3.0773679052841563
aF3.2234959409623944
aF3.922569768985712
aF2.621176281775035
aF3.6214878645806303
aF3.6214878645806303
aF3.922569768985712
aF1.8195439355418688
aF3.922569768985712
aF3.922569768985712
aF3.922569768985712
aF3.3203540328176717
aF3.922569768985712
aF3.6214878645806303
aF3.922569768985712
aF3.922569768985712
aF3.44544851426605
aF3.922569768985712
aF1.4471580313422192
aF3.922569768985712
aF3.2234959409623944
aF3.922569768985712
aF2.8432327780980096
aF2.6434526764861874
aF3.922569768985712
aF3.922569768985712
aF3.922569768985712
aF3.922569768985712
aF3.922569768985712
aF3.922569768985712
aF3.922569768985712
aF3.922569768985712
aF3.922569768985712
aF3.922569768985712
aF1.724275869600789
aF2.5998830720736876
aF3.922569768985712
aF3.922569768985712
aF3.922569768985712
aF3.6214878645806303
aF2.745855195173729
aF3.922569768985712
aF3.922569768985712
aF3.922569768985712
aF3.922569768985712
aF3.922569768985712
aF3.6214878645806303
aF3.922569768985712
aF3.922569768985712
aF3.144262773761991
aF3.922569768985712
aF3.922569768985712
aF3.922569768985712
aF3.922569768985712
aF3.922569768985712
aF3.6214878645806303
aF3.922569768985712
aF3.922569768985712
aF1.9912260756924949
aF3.922569768985712
aF3.922569768985712
aF1.9637878273455553
aF3.922569768985712
aF3.922569768985712
aF3.922569768985712
aF2.621176281775035
aF3.922569768985712
aF3.922569768985712
aF3.922569768985712
aF3.922569768985712
aF3.6214878645806303
aF3.6214878645806303
aF3.922569768985712
aF3.44544851426605
aF3.6214878645806303
aF3.6214878645806303
aF3.6214878645806303
aF0.9030899869919435
aF3.922569768985712
aF3.922569768985712
aF3.922569768985712
aF3.44544851426605
aF3.922569768985712
aF2.173186268412274
aF3.922569768985712
aF3.922569768985712
aF2.968015713993642
aF2.69196510276736
aF3.6214878645806303
aF2.9222062774390163
aF3.6214878645806303
aF3.922569768985712
aF3.44544851426605
aF3.6214878645806303
aF3.6214878645806303
aF3.44544851426605
aF2.113943352306837
aF3.6214878645806303
aF1.8976270912904414
aF1.8750612633917
aF2.5998830720736876
aF3.3203540328176717
aF2.69196510276736
aF1.6020599913279623
aF3.44544851426605
aF3.922569768985712
aF3.922569768985712
aF3.922569768985712
aF3.922569768985712
aF3.922569768985712
aF3.922569768985712
aF3.922569768985712
aF2.69196510276736
aF3.922569768985712
aF3.922569768985712
aF3.3203540328176717
aF3.922569768985712
aF3.6214878645806303
aF3.922569768985712
aF3.922569768985712
aF3.6214878645806303
aF3.922569768985712
aF3.922569768985712
aF2.2041199826559246
aF3.922569768985712
aF2.187520720836463
aF1.255272505103306
aF3.922569768985712
aF3.922569768985712
aF3.922569768985712
aF3.2234959409623944
aF2.2576785748691846
aF2.6665179805548807
aF3.44544851426605
aF3.019116290447073
aF2.57978359661681
aF2.041392685158225
aF3.922569768985712
aF3.922569768985712
aF3.922569768985712
aF2.3201462861110542
aF3.922569768985712
aF3.922569768985712
aF3.922569768985712
aF3.922569768985712
aF1.3010299956639813
aF3.922569768985712
aF3.922569768985712
aF3.922569768985712
aF2.8432327780980096
aF3.922569768985712
aF2.5998830720736876
aF2.968015713993642
aF2.0681858617461617
aF2.808210972924222
aF2.8432327780980096
aF3.3203540328176717
aF3.6214878645806303
aF1.7075701760979363
aF3.6214878645806303
aF3.922569768985712
aF3.922569768985712
aF2.775974331129369
aF3.44544851426605
aF3.0773679052841563
aF2.444044795918076
aF2.8432327780980096
aF3.2234959409623944
aF3.3203540328176717
aF3.6214878645806303
aF3.3203540328176717
aF3.3203540328176717
aF3.44544851426605
aF3.922569768985712
aF3.3203540328176717
aF3.6214878645806303
aF3.6214878645806303
aF3.922569768985712
aF3.6214878645806303
aF1.6901960800285136
aF3.922569768985712
aF3.3203540328176717
aF2.416640507338281
aF3.2234959409623944
aF3.922569768985712
aF3.922569768985712
aF3.0773679052841563
aF2.214843848047698
aF2.69196510276736
aF3.0773679052841563
aF1.380211241711606
aF3.44544851426605
aF3.44544851426605
aF3.019116290447073
aF3.3203540328176717
aF3.922569768985712
aF2.2405492482826
aF3.922569768985712
aF1.9444826721501687
aF3.922569768985712
aF2.3783979009481375
aF3.922569768985712
aF0.9030899869919435
aF3.019116290447073
aF2.3783979009481375
aF1.9084850188786497
aF1.8692317197309762
aF3.6214878645806303
aF3.922569768985712
aF3.922569768985712
aF3.922569768985712
aF3.44544851426605
aF3.019116290447073
aF3.6214878645806303
aF3.44544851426605
aF3.6214878645806303
aF3.44544851426605
aF3.6214878645806303
aF3.922569768985712
aF3.6214878645806303
aF3.6214878645806303
aF3.6214878645806303
aF3.3203540328176717
aF3.6214878645806303
aF3.6214878645806303
aF3.3203540328176717
aF3.6214878645806303
aF3.6214878645806303
aF3.6214878645806303
aF3.6214878645806303
aF2.968015713993642
aF3.6214878645806303
aF3.6214878645806303
aF3.6214878645806303
aF3.44544851426605
aF3.922569768985712
aF3.922569768985712
aF1.954242509439325
aF0.3010299956639812
aF3.922569768985712
aF3.6214878645806303
aF2.3909351071033793
aF3.2234959409623944
aF3.922569768985712
aF2.8432327780980096
aF1.919078092376074
aF2.3654879848909
aF1.1139433523068367
aF2.2405492482826
aF3.922569768985712
aF3.922569768985712
aF3.0773679052841563
aF2.621176281775035
aF3.6214878645806303
aF3.3203540328176717
aF3.3203540328176717
aF3.3203540328176717
aF2.775974331129369
aF2.8432327780980096
aF3.6214878645806303
aF3.44544851426605
aF3.922569768985712
aF3.44544851426605
aF1.6989700043360187
aF0.9030899869919435
aF2.287801729930226
aF1.8195439355418688
aF2.429752280002408
aF2.69196510276736
aF3.922569768985712
aF2.429752280002408
aF3.922569768985712
aF3.2234959409623944
aF3.922569768985712
aF3.44544851426605
aF0.3010299956639812
aF2.775974331129369
aF2.621176281775035
aF3.6214878645806303
aF3.6214878645806303
aF3.922569768985712
aF3.44544851426605
aF3.922569768985712
aF1.7481880270062005
aF3.922569768985712
aF3.44544851426605
aF3.922569768985712
aF3.922569768985712
aF3.922569768985712
aF3.922569768985712
aF2.214843848047698
aF2.1958996524092336
aF2.8432327780980096
aF2.69196510276736
aF2.6434526764861874
aF3.6214878645806303
aF3.922569768985712
aF3.922569768985712
aF2.403120521175818
aF3.922569768985712
aF3.922569768985712
aF3.922569768985712
aF3.44544851426605
aF3.2234959409623944
aF3.922569768985712
aF3.922569768985712
aF3.6214878645806303
aF3.922569768985712
aF2.745855195173729
aF1.6720978579357175
aF3.44544851426605
aF3.6214878645806303
aF3.922569768985712
aF3.922569768985712
aF3.922569768985712
aF3.922569768985712
aF3.6214878645806303
aF2.775974331129369
aF3.3203540328176717
aF3.44544851426605
aF3.6214878645806303
aF3.6214878645806303
aF3.6214878645806303
aF3.922569768985712
aF2.808210972924222
aF3.3203540328176717
aF2.57978359661681
aF3.922569768985712
aF3.922569768985712
aF3.922569768985712
aF3.6214878645806303
aF3.922569768985712
aF3.922569768985712
aF3.44544851426605
aF3.922569768985712
aF3.922569768985712
aF3.922569768985712
aF3.922569768985712
aF3.922569768985712
aF3.922569768985712
aF3.44544851426605
aF3.922569768985712
aF3.6214878645806303
aF3.922569768985712
aF3.922569768985712
aF3.922569768985712
aF3.922569768985712
aF3.922569768985712
aF3.922569768985712
aF3.922569768985712
aF3.2234959409623944
aF3.44544851426605
aF2.416640507338281
aF2.69196510276736
aF2.4742162640762553
aF1.414973347970818
aF1.4313637641589874
aF2.330413773349191
aF3.922569768985712
aF2.621176281775035
aF3.0773679052841563
aF1.8976270912904414
aF3.3203540328176717
aF3.922569768985712
aF3.922569768985712
aF3.922569768985712
aF3.3203540328176717
aF3.922569768985712
aF3.144262773761991
aF3.44544851426605
aF3.922569768985712
aF3.922569768985712
aF3.922569768985712
aF3.44544851426605
aF3.922569768985712
aF3.0773679052841563
aF1.4313637641589874
aF3.6214878645806303
aF3.922569768985712
aF3.922569768985712
aF3.922569768985712
aF2.8432327780980096
aF3.0773679052841563
aF3.0773679052841563
aF3.019116290447073
aF2.6665179805548807
aF3.019116290447073
aF1.792391689498254
aF3.019116290447073
aF2.9222062774390163
aF3.922569768985712
aF2.621176281775035
aF3.922569768985712
aF1.8750612633917
aF3.144262773761991
aF2.5237464668115646
aF3.44544851426605
aF3.44544851426605
aF3.922569768985712
aF3.922569768985712
aF2.8432327780980096
aF3.6214878645806303
aF3.6214878645806303
aF3.922569768985712
aF3.922569768985712
aF1.7853298350107671
aF3.2234959409623944
aF3.922569768985712
aF1.7853298350107671
aF1.6532125137753437
aF2.968015713993642
aF2.403120521175818
aF3.44544851426605
aF3.44544851426605
aF1.6232492903979006
aF3.6214878645806303
aF3.3203540328176717
aF1.0
aF2.342422680822206
aF2.3096301674258988
aF2.3783979009481375
aF2.8432327780980096
aF3.44544851426605
aF3.922569768985712
aF3.922569768985712
aF2.745855195173729
aF3.922569768985712
aF3.019116290447073
aF3.922569768985712
aF3.6214878645806303
aF3.3203540328176717
aF3.3203540328176717
aF3.922569768985712
aF1.6720978579357175
aF3.2234959409623944
aF3.44544851426605
aF3.144262773761991
aF3.6214878645806303
aF3.44544851426605
aF3.2234959409623944
aF3.019116290447073
aF3.144262773761991
aF3.922569768985712
aF3.922569768985712
aF3.3203540328176717
aF3.44544851426605
aF3.44544851426605
aF2.6434526764861874
aF3.922569768985712
aF3.922569768985712
aF3.144262773761991
aF3.922569768985712
aF2.0755469613925306
aF3.922569768985712
aF3.6214878645806303
aF3.6214878645806303
aF2.968015713993642
aF3.6214878645806303
aF3.6214878645806303
aF3.44544851426605
aF3.922569768985712
aF2.506505032404872
aF3.922569768985712
aF3.44544851426605
aF3.3203540328176717
aF3.922569768985712
aF3.922569768985712
aF3.6214878645806303
aF3.3203540328176717
aF3.6214878645806303
aF3.6214878645806303
aF3.922569768985712
aF3.3203540328176717
aF2.2405492482826
aF2.9222062774390163
aF3.0773679052841563
aF2.3654879848909
aF3.922569768985712
aF2.459392487759231
aF2.459392487759231
aF3.6214878645806303
aF3.922569768985712
aF3.6214878645806303
aF2.1583624920952498
aF2.1072099696478683
aF3.922569768985712
aF3.922569768985712
aF2.3541084391474008
aF3.144262773761991
aF3.922569768985712
aF3.44544851426605
aF3.922569768985712
aF3.922569768985712
aF3.922569768985712
aF2.5599066250361124
aF3.922569768985712
aF3.922569768985712
aF2.4899584794248346
aF3.922569768985712
aF1.9242792860618816
aF3.922569768985712
aF2.69196510276736
aF2.57978359661681
aF2.9222062774390163
aF2.6665179805548807
aF3.44544851426605
aF3.922569768985712
aF1.7403626894942439
aF1.3010299956639813
aF2.3909351071033793
aF3.922569768985712
aF3.019116290447073
aF3.922569768985712
aF3.922569768985712
aF3.922569768985712
aF1.8129133566428555
aF3.922569768985712
aF1.7853298350107671
aF1.8325089127062364
aF1.9444826721501687
aF1.5314789170422551
aF1.724275869600789
aF3.44544851426605
aF2.968015713993642
aF0.0
aF3.3203540328176717
aF3.144262773761991
aF3.6214878645806303
aF3.144262773761991
aF3.922569768985712
aF3.922569768985712
aF3.922569768985712
aF3.922569768985712
aF3.922569768985712
aF3.6214878645806303
aF3.922569768985712
aF1.1139433523068367
aF3.3203540328176717
aF3.3203540328176717
aF3.3203540328176717
aF3.6214878645806303
aF3.6214878645806303
aF3.3203540328176717
aF3.6214878645806303
aF3.44544851426605
aF3.922569768985712
aF3.922569768985712
aF3.922569768985712
aF1.2041199826559248
aF3.922569768985712
aF3.6214878645806303
aF3.44544851426605
aF3.922569768985712
aF3.922569768985712
aF3.922569768985712
aF2.8432327780980096
aF3.922569768985712
aF3.922569768985712
aF3.922569768985712
aF3.2234959409623944
aF2.6434526764861874
aF3.144262773761991
aF3.922569768985712
aF3.922569768985712
aF3.2234959409623944
aF3.6214878645806303
aF3.6214878645806303
aF3.44544851426605
aF3.922569768985712
aF3.922569768985712
aF3.019116290447073
aF3.44544851426605
aF3.144262773761991
aF1.3010299956639813
aF2.2041199826559246
aF2.69196510276736
aF1.6532125137753437
aF1.6020599913279623
aF1.5440680443502757
aF3.6214878645806303
aF3.2234959409623944
aF3.144262773761991
aF3.922569768985712
aF3.6214878645806303
aF1.9395192526186185
aF3.144262773761991
aF2.775974331129369
aF3.922569768985712
aF3.6214878645806303
aF3.6214878645806303
aF3.922569768985712
aF3.922569768985712
aF3.922569768985712
aF3.6214878645806303
aF3.2234959409623944
aF0.0
aF3.922569768985712
aF3.922569768985712
aF3.922569768985712
aF3.922569768985712
aF3.6214878645806303
aF3.922569768985712
aF3.922569768985712
aF3.144262773761991
aF3.3203540328176717
aF3.019116290447073
aF3.019116290447073
aF1.9138138523837167
aF3.019116290447073
aF3.019116290447073
aF3.019116290447073
aF3.019116290447073
aF3.019116290447073
aF3.019116290447073
aF3.144262773761991
aF2.6665179805548807
aF3.2234959409623944
aF3.6214878645806303
aF3.922569768985712
aF3.922569768985712
aF3.44544851426605
aF3.922569768985712
aF2.8808135922807914
aF2.6665179805548807
aF1.7481880270062005
aF3.922569768985712
aF0.7781512503836436
aF3.922569768985712
aF2.9222062774390163
aF3.6214878645806303
aF2.717670503002262
aF3.922569768985712
aF3.3203540328176717
aF3.2234959409623944
aF2.775974331129369
aF2.9222062774390163
aF3.922569768985712
aF2.9222062774390163
aF2.9222062774390163
aF2.8808135922807914
aF2.8808135922807914
aF3.922569768985712
aF2.745855195173729
aF3.3203540328176717
aF3.922569768985712
aF3.6214878645806303
aF2.3783979009481375
aF3.922569768985712
aF3.019116290447073
aF3.922569768985712
aF3.922569768985712
aF3.922569768985712
aF3.922569768985712
aF3.6214878645806303
aF3.922569768985712
aF3.922569768985712
aF3.2234959409623944
aF3.922569768985712
aF3.6214878645806303
aF3.922569768985712
aF3.922569768985712
aF3.922569768985712
aF3.922569768985712
aF2.3096301674258988
aF1.6020599913279623
aF3.0773679052841563
aF3.922569768985712
aF3.44544851426605
aF2.69196510276736
aF2.9222062774390163
aF3.44544851426605
aF3.922569768985712
aF3.922569768985712
aF3.922569768985712
aF2.8432327780980096
aF2.9222062774390163
aF2.8432327780980096
aF1.414973347970818
aF1.591064607026499
aF1.6127838567197355
aF1.6127838567197355
aF1.5185139398778875
aF2.093421685162235
aF3.922569768985712
aF3.6214878645806303
aF3.6214878645806303
aF3.922569768985712
aF3.922569768985712
aF3.922569768985712
aF3.3203540328176717
aF3.922569768985712
aF1.3010299956639813
aF3.44544851426605
aF3.922569768985712
aF2.69196510276736
aF3.144262773761991
aF3.0773679052841563
aF3.44544851426605
aF3.6214878645806303
aF3.6214878645806303
aF3.922569768985712
aF2.69196510276736
aF3.922569768985712
aF3.922569768985712
aF1.7853298350107671
aF3.922569768985712
aF2.5237464668115646
aF1.99563519459755
aF1.7075701760979363
aF3.3203540328176717
aF3.6214878645806303
aF3.922569768985712
aF2.8808135922807914
aF2.9222062774390163
aF3.019116290447073
aF3.0773679052841563
aF3.0773679052841563
aF2.416640507338281
aF3.922569768985712
aF3.3203540328176717
aF2.6434526764861874
aF2.444044795918076
aF3.6214878645806303
aF3.922569768985712
aF3.2234959409623944
aF3.3203540328176717
aF2.775974331129369
aF3.922569768985712
aF3.3203540328176717
aF3.922569768985712
aF3.922569768985712
aF2.8808135922807914
aF1.9731278535996986
aF3.922569768985712
aF3.922569768985712
aF3.6214878645806303
aF3.6214878645806303
aF3.6214878645806303
aF3.6214878645806303
aF3.6214878645806303
aF3.3203540328176717
aF3.2234959409623944
aF2.717670503002262
aF3.44544851426605
aF3.144262773761991
aF2.429752280002408
aF1.7993405494535817
aF3.144262773761991
aF3.2234959409623944
aF3.922569768985712
aF3.6214878645806303
aF3.922569768985712
aF3.922569768985712
aF3.922569768985712
aF3.922569768985712
aF3.3203540328176717
aF3.2234959409623944
aF3.2234959409623944
aF3.6214878645806303
aF2.6434526764861874
aF3.922569768985712
aF3.3203540328176717
aF3.922569768985712
aF3.922569768985712
aF3.922569768985712
aF3.922569768985712
aF3.6214878645806303
aF3.6214878645806303
aF3.3203540328176717
aF2.403120521175818
aF2.8432327780980096
aF3.922569768985712
aF3.922569768985712
aF2.416640507338281
aF3.922569768985712
aF3.922569768985712
aF3.3203540328176717
aF3.922569768985712
aF3.144262773761991
aF3.0773679052841563
aF3.922569768985712
aF2.459392487759231
aF3.922569768985712
aF3.922569768985712
aF3.922569768985712
aF3.922569768985712
aF3.44544851426605
aF3.922569768985712
aF3.922569768985712
aF2.5237464668115646
aF3.922569768985712
aF3.6214878645806303
aF3.0773679052841563
aF3.922569768985712
aF2.4899584794248346
aF2.330413773349191
aF0.0
aF3.6214878645806303
aF3.44544851426605
aF3.922569768985712
aF3.922569768985712
aF3.6214878645806303
aF3.922569768985712
aF3.922569768985712
aF3.922569768985712
aF3.922569768985712
aF3.922569768985712
aF2.8432327780980096
aF3.2234959409623944
aF3.922569768985712
aF3.0773679052841563
aF3.6214878645806303
aF3.922569768985712
aF3.3203540328176717
aF1.2041199826559248
aF3.2234959409623944
aF3.922569768985712
aF3.2234959409623944
aF2.57978359661681
aF2.968015713993642
aF3.922569768985712
aF3.144262773761991
aF3.6214878645806303
aF3.922569768985712
aF3.44544851426605
aF3.3203540328176717
aF3.6214878645806303
aF2.968015713993642
aF3.6214878645806303
aF3.6214878645806303
aF3.44544851426605
aF3.6214878645806303
aF2.8808135922807914
aF3.3203540328176717
aF3.44544851426605
aF3.922569768985712
aF3.6214878645806303
aF3.922569768985712
aF3.922569768985712
aF3.6214878645806303
aF2.5998830720736876
aF3.6214878645806303
aF3.922569768985712
aF3.922569768985712
aF3.922569768985712
aF3.6214878645806303
aF2.187520720836463
aF3.922569768985712
aF3.922569768985712
aF3.6214878645806303
aF3.3203540328176717
aF1.845098040014257
aF1.4913616938342726
aF1.4913616938342726
aF3.019116290447073
aF3.922569768985712
aF3.922569768985712
aF3.922569768985712
aF3.922569768985712
aF3.2234959409623944
aF3.6214878645806303
aF3.922569768985712
aF3.922569768985712
aF3.922569768985712
aF3.144262773761991
aF3.0773679052841563
aF3.144262773761991
aF3.144262773761991
aF2.8808135922807914
aF3.144262773761991
aF3.144262773761991
aF3.0773679052841563
aF3.144262773761991
aF3.144262773761991
aF3.144262773761991
aF3.6214878645806303
aF3.922569768985712
aF3.6214878645806303
aF0.3010299956639812
aF0.9542425094393249
aF2.717670503002262
aF3.144262773761991
aF2.342422680822206
aF2.3541084391474008
aF3.2234959409623944
aF1.9777236052888478
aF2.8808135922807914
aF3.922569768985712
aF2.506505032404872
aF3.6214878645806303
aF3.922569768985712
aF3.922569768985712
aF3.922569768985712
aF3.922569768985712
aF2.9222062774390163
aF2.621176281775035
aF0.7781512503836436
aF3.2234959409623944
aF3.922569768985712
aF3.922569768985712
aF1.0
aF3.922569768985712
aF3.144262773761991
aF1.505149978319906
aF3.922569768985712
aF3.922569768985712
aF3.6214878645806303
aF2.621176281775035
aF3.6214878645806303
aF3.922569768985712
aF3.922569768985712
aF3.922569768985712
aF3.922569768985712
aF3.922569768985712
aF3.922569768985712
aF3.922569768985712
aF3.922569768985712
aF3.922569768985712
aF3.922569768985712
aF3.3203540328176717
aF1.9493900066449128
aF3.6214878645806303
aF3.922569768985712
aF3.922569768985712
aF3.922569768985712
aF3.922569768985712
aF3.922569768985712
aF2.775974331129369
aF2.8808135922807914
aF1.2787536009528289
aF3.922569768985712
aF3.6214878645806303
aF3.44544851426605
aF3.6214878645806303
aF3.6214878645806303
aF3.3203540328176717
aF3.922569768985712
aF3.922569768985712
aF3.3203540328176717
aF3.6214878645806303
aF2.3909351071033793
aF2.9222062774390163
aF3.922569768985712
aF3.922569768985712
aF3.922569768985712
aF3.44544851426605
aF3.6214878645806303
aF2.0211892990699383
aF3.144262773761991
aF3.922569768985712
aF2.342422680822206
aF3.6214878645806303
aF3.3203540328176717
aF2.342422680822206
aF3.2234959409623944
aF3.922569768985712
aF3.922569768985712
aF1.9395192526186185
aF3.922569768985712
aF2.6434526764861874
aF2.506505032404872
aF2.3783979009481375
aF3.6214878645806303
aF3.44544851426605
aF3.6214878645806303
aF1.4913616938342726
aF3.6214878645806303
aF3.922569768985712
aF3.922569768985712
aF3.922569768985712
aF2.416640507338281
aF2.3909351071033793
aF2.444044795918076
aF3.922569768985712
aF3.922569768985712
aF3.922569768985712
aF3.922569768985712
aF3.922569768985712
aF3.922569768985712
aF3.6214878645806303
aF3.2234959409623944
aF2.093421685162235
aF3.922569768985712
aF3.3203540328176717
aF3.922569768985712
aF3.44544851426605
aF3.44544851426605
aF3.6214878645806303
aF3.922569768985712
aF3.922569768985712
aF3.922569768985712
aF3.3203540328176717
aF3.922569768985712
aF2.6434526764861874
aF3.922569768985712
aF3.3203540328176717
aF3.144262773761991
aF2.8432327780980096
aF3.2234959409623944
aF3.922569768985712
aF3.922569768985712
aF3.922569768985712
aF3.3203540328176717
aF2.808210972924222
aF3.6214878645806303
aF3.6214878645806303
aF3.44544851426605
aF3.6214878645806303
aF3.6214878645806303
aF1.6334684555795864
aF2.745855195173729
aF1.5563025007672873
aF2.5998830720736876
aF2.6665179805548807
aF3.922569768985712
aF3.2234959409623944
aF2.3201462861110542
aF2.8432327780980096
aF3.922569768985712
aF3.6214878645806303
aF3.2234959409623944
aF3.922569768985712
aF3.922569768985712
aF3.922569768985712
aF3.922569768985712
aF3.6214878645806303
aF3.922569768985712
aF3.922569768985712
aF3.922569768985712
aF3.922569768985712
aF3.922569768985712
aF1.6812412373755872
aF3.6214878645806303
aF3.6214878645806303
aF3.44544851426605
aF3.6214878645806303
aF3.6214878645806303
aF3.0773679052841563
aF1.7853298350107671
aF3.44544851426605
aF2.6434526764861874
aF3.6214878645806303
aF3.922569768985712
aF3.2234959409623944
aF3.6214878645806303
aF3.44544851426605
aF3.2234959409623944
aF3.922569768985712
aF3.6214878645806303
aF2.69196510276736
aF3.2234959409623944
aF3.6214878645806303
aF3.0773679052841563
aF2.717670503002262
aF2.808210972924222
aF2.6434526764861874
aF3.922569768985712
aF3.6214878645806303
aF3.922569768985712
aF3.922569768985712
aF3.6214878645806303
aF3.922569768985712
aF3.3203540328176717
aF3.922569768985712
aF3.922569768985712
aF2.403120521175818
aF2.968015713993642
aF2.9222062774390163
aF3.6214878645806303
aF1.5314789170422551
aF3.44544851426605
aF3.44544851426605
aF3.44544851426605
aF3.0773679052841563
aF3.019116290447073
aF3.922569768985712
aF3.922569768985712
aF3.6214878645806303
aF3.922569768985712
aF3.922569768985712
aF3.922569768985712
aF3.922569768985712
aF3.44544851426605
aF3.922569768985712
aF1.3424226808222062
aF3.6214878645806303
aF3.922569768985712
aF2.298853076409707
aF2.745855195173729
aF2.968015713993642
aF3.44544851426605
aF3.44544851426605
aF3.6214878645806303
aF3.922569768985712
aF3.6214878645806303
aF3.922569768985712
aF3.922569768985712
aF3.922569768985712
aF3.922569768985712
aF3.922569768985712
aF3.922569768985712
aF3.6214878645806303
aF3.2234959409623944
aF3.6214878645806303
aF3.6214878645806303
aF3.44544851426605
aF3.6214878645806303
aF3.3203540328176717
aF2.57978359661681
aF3.0773679052841563
aF3.0773679052841563
aF3.6214878645806303
aF3.922569768985712
aF3.922569768985712
aF3.6214878645806303
aF1.7634279935629373
aF3.922569768985712
aF3.6214878645806303
aF3.922569768985712
aF2.8808135922807914
aF2.8808135922807914
aF3.922569768985712
aF3.922569768985712
aF3.922569768985712
aF3.922569768985712
aF3.3203540328176717
aF3.922569768985712
aF3.922569768985712
aF3.2234959409623944
aF2.3201462861110542
aF3.922569768985712
aF3.922569768985712
aF3.144262773761991
aF3.144262773761991
aF2.342422680822206
aF2.3541084391474008
aF2.6665179805548807
aF3.144262773761991
aF3.922569768985712
aF3.922569768985712
aF3.922569768985712
aF3.2234959409623944
aF3.922569768985712
aF3.3203540328176717
aF3.922569768985712
aF1.1139433523068367
aF3.922569768985712
aF3.922569768985712
aF2.968015713993642
aF3.922569768985712
aF3.922569768985712
aF1.845098040014257
aF1.9867717342662448
aF1.0
aF3.922569768985712
aF3.3203540328176717
aF3.922569768985712
aF2.69196510276736
aF2.214843848047698
aF3.922569768985712
aF3.922569768985712
aF3.0773679052841563
aF3.922569768985712
aF3.922569768985712
aF3.922569768985712
aF2.3201462861110542
aF3.922569768985712
aF3.922569768985712
aF3.6214878645806303
aF3.6214878645806303
aF3.922569768985712
aF2.2671717284030137
aF3.922569768985712
aF3.922569768985712
aF2.6434526764861874
aF3.0773679052841563
aF3.019116290447073
aF3.922569768985712
aF2.429752280002408
aF2.4899584794248346
aF1.7853298350107671
aF3.0773679052841563
aF3.922569768985712
aF3.922569768985712
aF2.8808135922807914
aF2.968015713993642
aF3.922569768985712
aF3.922569768985712
aF3.019116290447073
aF3.922569768985712
aF1.5440680443502757
aF3.922569768985712
aF1.146128035678238
aF2.9222062774390163
aF3.2234959409623944
aF3.922569768985712
aF2.416640507338281
aF2.0086001717619175
aF2.0086001717619175
aF2.4742162640762553
aF2.745855195173729
aF2.4899584794248346
aF2.8808135922807914
aF1.4771212547196624
aF2.1367205671564067
aF2.444044795918076
aF1.9493900066449128
aF3.2234959409623944
aF2.1583624920952498
aF1.8864907251724818
aF3.922569768985712
aF3.6214878645806303
aF3.922569768985712
aF3.922569768985712
aF3.922569768985712
aF3.44544851426605
aF3.44544851426605
aF3.44544851426605
aF2.968015713993642
aF2.968015713993642
aF2.9222062774390163
aF3.44544851426605
aF3.922569768985712
aF1.8692317197309762
aF3.922569768985712
aF3.2234959409623944
aF3.922569768985712
aF3.922569768985712
aF3.922569768985712
aF3.922569768985712
aF3.922569768985712
aF3.922569768985712
aF3.922569768985712
aF3.922569768985712
aF3.922569768985712
aF3.922569768985712
aF3.922569768985712
aF3.44544851426605
aF2.3654879848909
aF3.922569768985712
aF3.922569768985712
aF3.6214878645806303
aF3.6214878645806303
aF2.6434526764861874
aF3.44544851426605
aF1.7323937598229686
aF1.5314789170422551
aF3.922569768985712
aF3.922569768985712
aF3.922569768985712
aF3.922569768985712
aF1.9912260756924949
aF3.3203540328176717
aF3.3203540328176717
aF3.922569768985712
aF2.3096301674258988
aF3.3203540328176717
aF3.3203540328176717
aF3.44544851426605
aF2.4899584794248346
aF3.6214878645806303
aF3.922569768985712
aF1.6434526764861874
aF2.03342375548695
aF1.7634279935629373
aF2.278753600952829
aF3.6214878645806303
aF3.2234959409623944
aF3.3203540328176717
aF1.9444826721501687
aF3.922569768985712
aF3.922569768985712
aF3.6214878645806303
aF3.6214878645806303
aF2.4742162640762553
aF3.44544851426605
aF3.922569768985712
aF3.44544851426605
aF1.9637878273455553
aF3.6214878645806303
aF3.922569768985712
aF2.6434526764861874
aF3.6214878645806303
aF3.6214878645806303
aF3.6214878645806303
aF3.922569768985712
aF3.922569768985712
aF3.2234959409623944
aF2.429752280002408
aF2.6434526764861874
aF3.922569768985712
aF3.922569768985712
aF3.922569768985712
aF3.922569768985712
aF3.922569768985712
aF3.922569768985712
aF3.2234959409623944
aF2.164352855784437
aF3.922569768985712
aF2.1958996524092336
aF3.922569768985712
aF3.922569768985712
aF3.922569768985712
aF3.6214878645806303
aF1.8388490907372552
aF2.0
aF2.717670503002262
aF3.44544851426605
aF2.3909351071033793
aF3.6214878645806303
aF2.444044795918076
aF3.6214878645806303
aF3.6214878645806303
aF3.3203540328176717
aF2.3783979009481375
aF2.808210972924222
aF2.5237464668115646
aF1.5797835966168101
aF2.278753600952829
aF3.0773679052841563
aF2.808210972924222
aF3.6214878645806303
aF3.922569768985712
aF3.44544851426605
aF3.6214878645806303
aF2.69196510276736
aF3.3203540328176717
aF2.403120521175818
aF3.3203540328176717
aF3.44544851426605
aF3.922569768985712
aF3.922569768985712
aF3.144262773761991
aF3.922569768985712
aF3.6214878645806303
aF3.922569768985712
aF3.6214878645806303
aF3.0773679052841563
aF2.1271047983648077
aF2.1958996524092336
aF3.144262773761991
aF2.808210972924222
aF2.968015713993642
aF2.9222062774390163
aF3.0773679052841563
aF2.100370545117563
aF3.6214878645806303
aF2.1958996524092336
aF1.9242792860618816
aF3.922569768985712
aF3.922569768985712
aF1.8692317197309762
aF3.922569768985712
aF3.922569768985712
aF3.922569768985712
aF3.2234959409623944
aF3.2234959409623944
aF3.3203540328176717
aF3.6214878645806303
aF3.6214878645806303
aF3.922569768985712
aF3.2234959409623944
aF3.2234959409623944
aF3.2234959409623944
aF1.6812412373755872
aF3.44544851426605
aF3.6214878645806303
aF3.6214878645806303
aF2.57978359661681
aF2.3783979009481375
aF2.416640507338281
aF2.278753600952829
aF3.922569768985712
aF3.922569768985712
aF2.717670503002262
aF3.922569768985712
aF2.621176281775035
aF2.968015713993642
aF2.968015713993642
aF3.019116290447073
aF3.44544851426605
aF1.7558748556724915
aF2.0569048513364727
aF3.922569768985712
aF3.922569768985712
aF2.250420002308894
aF2.69196510276736
aF3.6214878645806303
aF3.44544851426605
aF3.922569768985712
aF3.922569768985712
aF3.922569768985712
aF3.922569768985712
aF3.922569768985712
aF3.922569768985712
aF3.922569768985712
aF3.922569768985712
aF3.922569768985712
aF3.922569768985712
aF3.922569768985712
aF3.922569768985712
aF3.922569768985712
aF3.922569768985712
aF3.922569768985712
aF2.621176281775035
aF2.5998830720736876
aF3.922569768985712
aF2.429752280002408
aF3.922569768985712
aF1.9294189257142926
aF3.6214878645806303
aF1.9030899869919435
aF3.6214878645806303
aF3.44544851426605
aF3.922569768985712
aF3.019116290447073
aF3.922569768985712
aF3.922569768985712
aF3.922569768985712
aF3.922569768985712
aF3.6214878645806303
aF3.922569768985712
aF3.6214878645806303
aF3.6214878645806303
aF2.5415792439465807
aF3.6214878645806303
aF3.6214878645806303
aF3.922569768985712
aF3.144262773761991
aF3.922569768985712
aF3.922569768985712
aF3.6214878645806303
aF2.403120521175818
aF3.44544851426605
aF2.6434526764861874
aF2.745855195173729
aF3.6214878645806303
aF3.6214878645806303
aF3.3203540328176717
aF2.250420002308894
aF3.922569768985712
aF3.2234959409623944
aF3.922569768985712
aF3.922569768985712
aF3.922569768985712
aF3.922569768985712
aF3.2234959409623944
aF3.6214878645806303
aF3.6214878645806303
aF3.44544851426605
aF3.44544851426605
aF3.6214878645806303
aF3.6214878645806303
aF2.968015713993642
aF3.6214878645806303
aF3.922569768985712
aF3.922569768985712
aF3.44544851426605
aF3.922569768985712
aF3.922569768985712
aF3.922569768985712
aF3.922569768985712
aF3.6214878645806303
aF3.922569768985712
aF3.922569768985712
aF1.7853298350107671
aF2.4742162640762553
aF3.6214878645806303
aF3.922569768985712
aF2.4742162640762553
aF1.5314789170422551
aF3.3203540328176717
aF3.6214878645806303
aF3.2234959409623944
aF3.922569768985712
aF3.3203540328176717
aF3.922569768985712
aF3.922569768985712
aF3.922569768985712
aF3.6214878645806303
aF3.6214878645806303
aF3.6214878645806303
aF3.44544851426605
aF3.6214878645806303
aF3.922569768985712
aF3.922569768985712
aF3.922569768985712
aF3.922569768985712
aF3.922569768985712
aF3.922569768985712
aF3.922569768985712
aF3.922569768985712
aF2.5599066250361124
aF3.922569768985712
aF3.922569768985712
aF3.922569768985712
aF3.922569768985712
aF3.922569768985712
aF3.922569768985712
aF2.57978359661681
aF3.922569768985712
aF3.922569768985712
aF3.922569768985712
aF3.2234959409623944
aF3.922569768985712
aF3.922569768985712
aF3.922569768985712
aF3.922569768985712
aF3.922569768985712
aF1.6812412373755872
aF3.2234959409623944
aF3.2234959409623944
aF3.922569768985712
aF3.922569768985712
aF3.922569768985712
aF3.0773679052841563
aF3.922569768985712
aF3.922569768985712
aF3.6214878645806303
aF2.0530784434834195
aF3.44544851426605
aF3.922569768985712
aF3.2234959409623944
aF3.44544851426605
aF3.6214878645806303
aF3.922569768985712
aF3.3203540328176717
aF3.3203540328176717
aF3.2234959409623944
aF3.3203540328176717
aF3.44544851426605
aF3.0773679052841563
aF3.922569768985712
aF3.0773679052841563
aF0.47712125471966244
aF3.922569768985712
aF2.164352855784437
aF3.922569768985712
aF3.6214878645806303
aF3.922569768985712
aF3.44544851426605
aF3.922569768985712
aF3.0773679052841563
aF3.44544851426605
aF3.6214878645806303
aF3.2234959409623944
aF3.922569768985712
aF2.5237464668115646
aF3.2234959409623944
aF3.922569768985712
aF3.6214878645806303
aF2.6434526764861874
aF2.745855195173729
aF3.922569768985712
aF3.922569768985712
aF3.0773679052841563
aF3.922569768985712
aF1.568201724066995
aF3.922569768985712
aF3.922569768985712
aF3.44544851426605
aF3.922569768985712
aF3.922569768985712
aF3.922569768985712
aF3.3203540328176717
aF3.3203540328176717
aF3.6214878645806303
aF1.9395192526186185
aF3.922569768985712
aF3.922569768985712
aF3.922569768985712
aF3.922569768985712
aF3.922569768985712
aF3.3203540328176717
aF3.922569768985712
aF3.922569768985712
aF3.3203540328176717
aF3.922569768985712
aF3.922569768985712
aF2.4899584794248346
aF3.44544851426605
aF3.3203540328176717
aF3.922569768985712
aF3.922569768985712
aF2.506505032404872
aF3.922569768985712
aF3.922569768985712
aF3.6214878645806303
aF3.922569768985712
aF3.922569768985712
aF3.922569768985712
aF3.6214878645806303
aF3.922569768985712
aF3.922569768985712
aF3.922569768985712
aF3.922569768985712
aF2.6434526764861874
aF3.922569768985712
aF3.922569768985712
aF3.922569768985712
aF3.922569768985712
aF3.144262773761991
aF3.3203540328176717
aF3.922569768985712
aF3.922569768985712
aF3.922569768985712
aF3.922569768985712
aF3.922569768985712
aF3.922569768985712
aF3.2234959409623944
aF3.0773679052841563
aF3.922569768985712
aF3.6214878645806303
aF3.922569768985712
aF3.922569768985712
aF3.922569768985712
aF3.922569768985712
aF3.922569768985712
aF3.922569768985712
aF3.922569768985712
aF3.922569768985712
aF3.922569768985712
aF3.922569768985712
aF3.922569768985712
aF3.922569768985712
aF3.6214878645806303
aF3.922569768985712
aF3.922569768985712
aF3.44544851426605
aF3.44544851426605
aF3.44544851426605
aF3.922569768985712
aF2.968015713993642
aF3.6214878645806303
aF3.922569768985712
aF3.922569768985712
aF3.922569768985712
aF2.8808135922807914
aF3.0773679052841563
aF3.0773679052841563
aF3.0773679052841563
aF3.3203540328176717
aF3.6214878645806303
aF3.6214878645806303
aF3.922569768985712
aF3.922569768985712
aF3.6214878645806303
aF3.922569768985712
aF3.922569768985712
aF3.922569768985712
aF3.922569768985712
aF3.922569768985712
aF3.44544851426605
aF3.922569768985712
aF3.922569768985712
aF3.922569768985712
aF3.922569768985712
aF3.6214878645806303
aF2.8808135922807914
aF3.922569768985712
aF1.9084850188786497
aF3.922569768985712
aF3.922569768985712
aF3.922569768985712
aF3.922569768985712
aF3.922569768985712
aF3.922569768985712
aF3.922569768985712
aF3.922569768985712
aF3.922569768985712
aF2.717670503002262
aF2.0827853703164503
aF1.9444826721501687
aF3.922569768985712
aF3.144262773761991
aF2.8808135922807914
aF2.8432327780980096
aF3.0773679052841563
aF3.922569768985712
aF3.922569768985712
aF3.019116290447073
aF1.0
aF2.745855195173729
aF3.44544851426605
aF3.922569768985712
aF2.968015713993642
aF2.968015713993642
aF3.922569768985712
aF2.330413773349191
aF3.44544851426605
aF3.6214878645806303
aF2.8808135922807914
aF3.144262773761991
aF3.44544851426605
aF3.144262773761991
aF3.922569768985712
aF3.922569768985712
aF3.922569768985712
aF3.6214878645806303
aF3.2234959409623944
aF3.922569768985712
aF3.922569768985712
aF3.6214878645806303
aF3.922569768985712
aF3.922569768985712
aF3.922569768985712
aF3.922569768985712
aF2.3096301674258988
aF3.922569768985712
aF2.444044795918076
aF3.44544851426605
aF3.44544851426605
aF3.922569768985712
aF2.745855195173729
aF2.968015713993642
aF3.6214878645806303
aF2.8808135922807914
aF3.922569768985712
aF3.922569768985712
aF1.5563025007672873
aF3.6214878645806303
aF3.922569768985712
aF3.922569768985712
aF3.6214878645806303
aF2.342422680822206
aF3.6214878645806303
aF3.44544851426605
aF3.44544851426605
aF3.922569768985712
aF2.506505032404872
aF3.2234959409623944
aF3.144262773761991
aF3.2234959409623944
aF3.2234959409623944
aF2.968015713993642
aF3.0773679052841563
aF3.922569768985712
aF2.459392487759231
aF3.44544851426605
aF3.44544851426605
aF3.922569768985712
aF3.922569768985712
aF2.1583624920952498
aF3.6214878645806303
aF3.2234959409623944
aF3.922569768985712
aF3.6214878645806303
aF3.6214878645806303
aF3.6214878645806303
aF3.6214878645806303
aF2.4899584794248346
aF3.3203540328176717
aF3.2234959409623944
aF3.922569768985712
aF3.922569768985712
aF3.3203540328176717
aF3.922569768985712
aF3.922569768985712
aF3.922569768985712
aF3.922569768985712
aF3.2234959409623944
aF3.922569768985712
aF3.0773679052841563
aF3.922569768985712
aF3.922569768985712
aF3.6214878645806303
aF3.922569768985712
aF3.922569768985712
aF3.922569768985712
aF3.922569768985712
aF3.922569768985712
aF3.922569768985712
aF3.6214878645806303
aF3.6214878645806303
aF3.922569768985712
aF3.922569768985712
aF3.922569768985712
aF3.922569768985712
aF3.922569768985712
aF3.922569768985712
aF2.330413773349191
aF3.922569768985712
aF3.3203540328176717
aF2.968015713993642
aF3.44544851426605
aF3.922569768985712
aF3.44544851426605
aF3.44544851426605
aF3.44544851426605
aF3.6214878645806303
aF2.089905111439398
aF3.922569768985712
aF2.9222062774390163
aF3.922569768985712
aF3.922569768985712
aF3.44544851426605
aF3.3203540328176717
aF3.922569768985712
aF2.9222062774390163
aF3.44544851426605
aF3.44544851426605
aF3.922569768985712
aF3.2234959409623944
aF3.3203540328176717
aF3.922569768985712
aF3.6214878645806303
aF3.922569768985712
aF3.6214878645806303
aF3.0773679052841563
aF3.144262773761991
aF2.745855195173729
aF3.922569768985712
aF3.922569768985712
aF3.6214878645806303
aF3.922569768985712
aF3.44544851426605
aF3.922569768985712
aF3.6214878645806303
aF3.922569768985712
aF3.44544851426605
aF3.2234959409623944
aF3.922569768985712
aF2.2227164711475833
aF3.922569768985712
aF3.922569768985712
aF2.3654879848909
aF1.7634279935629373
aF1.8512583487190752
aF3.0773679052841563
aF1.6720978579357175
aF2.093421685162235
aF2.4899584794248346
aF3.44544851426605
aF3.922569768985712
aF3.922569768985712
aF3.6214878645806303
aF3.2234959409623944
aF3.2234959409623944
aF3.922569768985712
aF3.6214878645806303
aF3.922569768985712
aF3.922569768985712
aF3.6214878645806303
aF3.6214878645806303
aF3.922569768985712
aF3.6214878645806303
aF2.775974331129369
aF2.429752280002408
aF3.44544851426605
aF3.144262773761991
aF3.44544851426605
aF3.6214878645806303
aF3.922569768985712
aF3.922569768985712
aF3.6214878645806303
aF3.6214878645806303
aF2.278753600952829
aF3.6214878645806303
aF3.922569768985712
aF3.922569768985712
aF3.922569768985712
aF3.922569768985712
aF3.922569768985712
aF3.6214878645806303
aF3.922569768985712
aF3.6214878645806303
aF3.922569768985712
aF2.775974331129369
aF3.6214878645806303
aF3.6214878645806303
aF3.6214878645806303
aF3.44544851426605
aF3.6214878645806303
aF3.019116290447073
aF3.0773679052841563
aF3.144262773761991
aF2.089905111439398
aF2.6665179805548807
aF2.968015713993642
aF3.44544851426605
aF2.6665179805548807
aF3.922569768985712
aF2.9222062774390163
aF3.922569768985712
aF2.745855195173729
aF3.922569768985712
aF3.922569768985712
aF3.922569768985712
aF3.922569768985712
aF3.922569768985712
aF3.922569768985712
aF3.922569768985712
aF3.6214878645806303
aF3.6214878645806303
aF3.922569768985712
aF3.922569768985712
aF3.6214878645806303
aF3.6214878645806303
aF3.6214878645806303
aF3.6214878645806303
aF1.724275869600789
aF1.6812412373755872
aF3.6214878645806303
aF3.922569768985712
aF2.808210972924222
aF3.922569768985712
aF3.922569768985712
aF3.6214878645806303
aF3.922569768985712
aF3.922569768985712
aF3.922569768985712
aF3.922569768985712
aF3.922569768985712
aF2.717670503002262
aF3.922569768985712
aF3.6214878645806303
aF3.922569768985712
aF3.922569768985712
aF3.44544851426605
aF3.922569768985712
aF3.144262773761991
aF2.8432327780980096
aF3.44544851426605
aF3.922569768985712
aF3.922569768985712
aF3.922569768985712
aF2.775974331129369
aF1.462397997898956
aF2.214843848047698
aF2.287801729930226
aF2.621176281775035
aF3.6214878645806303
aF3.44544851426605
aF3.922569768985712
aF3.922569768985712
aF3.922569768985712
aF3.144262773761991
aF3.44544851426605
aF3.6214878645806303
aF2.3541084391474008
aF2.187520720836463
aF2.9222062774390163
aF3.3203540328176717
aF3.6214878645806303
aF3.922569768985712
aF3.922569768985712
aF3.44544851426605
aF3.44544851426605
aF3.3203540328176717
aF3.922569768985712
aF3.922569768985712
aF2.69196510276736
aF3.922569768985712
aF3.019116290447073
aF3.922569768985712
aF3.019116290447073
aF2.808210972924222
aF3.922569768985712
aF3.6214878645806303
aF3.922569768985712
aF2.2041199826559246
aF2.506505032404872
aF3.922569768985712
aF3.922569768985712
aF3.922569768985712
aF3.922569768985712
aF3.922569768985712
aF3.6214878645806303
aF3.922569768985712
aF3.6214878645806303
aF3.2234959409623944
aF3.144262773761991
aF3.2234959409623944
aF2.775974331129369
aF2.5998830720736876
aF2.775974331129369
aF2.9222062774390163
aF2.717670503002262
aF3.3203540328176717
aF3.922569768985712
aF3.44544851426605
aF3.2234959409623944
aF3.6214878645806303
aF3.922569768985712
aF3.922569768985712
aF3.144262773761991
aF3.2234959409623944
aF3.144262773761991
aF3.3203540328176717
aF3.44544851426605
aF3.922569768985712
aF1.568201724066995
aF3.6214878645806303
aF3.6214878645806303
aF2.775974331129369
aF2.775974331129369
aF2.775974331129369
aF3.3203540328176717
aF3.3203540328176717
aF3.6214878645806303
aF3.6214878645806303
aF3.2234959409623944
aF3.3203540328176717
aF2.506505032404872
aF3.0773679052841563
aF3.2234959409623944
aF2.9222062774390163
aF3.3203540328176717
aF3.922569768985712
aF3.922569768985712
aF3.922569768985712
aF3.922569768985712
aF3.922569768985712
aF3.6214878645806303
aF3.922569768985712
aF3.6214878645806303
aF3.922569768985712
aF2.416640507338281
aF2.9222062774390163
aF2.278753600952829
aF3.922569768985712
aF3.6214878645806303
aF3.922569768985712
aF3.144262773761991
aF3.6214878645806303
aF3.3203540328176717
aF3.922569768985712
aF2.041392685158225
aF2.5237464668115646
aF3.0773679052841563
aF3.0773679052841563
aF3.2234959409623944
aF3.44544851426605
aF3.922569768985712
aF3.6214878645806303
aF3.6214878645806303
aF2.8432327780980096
aF3.922569768985712
aF2.287801729930226
aF3.6214878645806303
aF3.6214878645806303
aF3.6214878645806303
aF3.922569768985712
aF2.3909351071033793
aF3.019116290447073
aF3.2234959409623944
aF3.922569768985712
aF3.922569768985712
aF3.922569768985712
aF3.6214878645806303
aF3.2234959409623944
aF2.8808135922807914
aF2.9222062774390163
aF3.3203540328176717
aF2.621176281775035
aF2.745855195173729
aF2.808210972924222
aF2.69196510276736
aF3.44544851426605
aF3.6214878645806303
aF3.6214878645806303
aF3.922569768985712
aF1.4913616938342726
aF3.922569768985712
aF3.922569768985712
aF3.922569768985712
aF3.3203540328176717
aF3.922569768985712
aF3.019116290447073
aF3.44544851426605
aF2.968015713993642
aF3.922569768985712
aF3.922569768985712
aF3.922569768985712
aF3.6214878645806303
aF3.922569768985712
aF3.922569768985712
aF3.6214878645806303
aF3.6214878645806303
aF3.6214878645806303
aF3.6214878645806303
aF3.6214878645806303
aF3.6214878645806303
aF3.922569768985712
aF3.44544851426605
aF3.922569768985712
aF3.44544851426605
aF3.6214878645806303
aF2.2041199826559246
aF3.019116290447073
aF3.6214878645806303
aF2.164352855784437
aF1.792391689498254
aF3.922569768985712
aF2.12057393120585
aF3.922569768985712
aF3.922569768985712
aF2.5415792439465807
aF3.922569768985712
aF3.922569768985712
aF3.922569768985712
aF2.459392487759231
aF3.922569768985712
aF3.922569768985712
aF3.922569768985712
aF3.922569768985712
aF3.922569768985712
aF3.44544851426605
aF3.0773679052841563
aF3.6214878645806303
aF3.6214878645806303
aF3.922569768985712
aF3.922569768985712
aF3.922569768985712
aF3.922569768985712
aF3.6214878645806303
aF2.8432327780980096
aF3.922569768985712
aF3.922569768985712
aF3.3203540328176717
aF3.44544851426605
aF3.922569768985712
aF3.2234959409623944
aF3.0773679052841563
aF2.968015713993642
aF3.6214878645806303
aF3.922569768985712
aF2.8808135922807914
aF2.69196510276736
aF3.922569768985712
aF3.44544851426605
aF2.4742162640762553
aF3.44544851426605
aF2.69196510276736
aF2.9222062774390163
aF3.922569768985712
aF3.3203540328176717
aF2.8432327780980096
aF3.6214878645806303
aF3.922569768985712
aF3.6214878645806303
aF2.3654879848909
aF3.922569768985712
aF3.922569768985712
aF2.1492191126553797
aF3.922569768985712
aF3.922569768985712
aF3.922569768985712
aF3.922569768985712
aF3.44544851426605
aF3.3203540328176717
aF3.3203540328176717
aF2.8432327780980096
aF3.922569768985712
aF3.922569768985712
aF3.922569768985712
aF3.922569768985712
aF3.922569768985712
aF3.3203540328176717
aF3.922569768985712
aF3.44544851426605
aF3.44544851426605
aF3.6214878645806303
aF3.44544851426605
aF3.6214878645806303
aF3.2234959409623944
aF3.6214878645806303
aF3.6214878645806303
aF3.922569768985712
aF3.44544851426605
aF3.922569768985712
aF3.922569768985712
aF3.922569768985712
aF3.922569768985712
aF3.6214878645806303
aF3.922569768985712
aF3.922569768985712
aF3.922569768985712
aF3.922569768985712
aF3.922569768985712
aF3.2234959409623944
aF3.922569768985712
aF3.44544851426605
aF3.922569768985712
aF3.922569768985712
aF3.922569768985712
aF2.3541084391474008
aF3.922569768985712
aF3.44544851426605
aF3.6214878645806303
aF3.922569768985712
aF1.9912260756924949
aF3.019116290447073
aF3.144262773761991
aF3.922569768985712
aF3.922569768985712
aF3.44544851426605
aF3.922569768985712
aF3.3203540328176717
aF3.922569768985712
aF1.7993405494535817
aF3.6214878645806303
aF3.922569768985712
aF3.6214878645806303
aF3.6214878645806303
aF3.922569768985712
aF3.922569768985712
aF3.922569768985712
aF3.922569768985712
aF3.922569768985712
aF3.922569768985712
aF3.6214878645806303
aF3.922569768985712
aF3.922569768985712
aF2.6434526764861874
aF2.506505032404872
aF3.922569768985712
aF3.922569768985712
aF3.922569768985712
aF3.3203540328176717
aF3.922569768985712
aF1.4471580313422192
aF3.922569768985712
aF3.922569768985712
aF3.922569768985712
aF3.922569768985712
aF3.3203540328176717
aF3.3203540328176717
aF3.922569768985712
aF3.6214878645806303
aF3.922569768985712
aF3.922569768985712
aF3.144262773761991
aF3.922569768985712
aF3.44544851426605
aF3.922569768985712
aF3.6214878645806303
aF3.2234959409623944
aF3.922569768985712
aF3.922569768985712
aF3.922569768985712
aF3.144262773761991
aF3.3203540328176717
aF3.922569768985712
aF2.5998830720736876
aF3.6214878645806303
aF3.2234959409623944
aF3.6214878645806303
aF3.6214878645806303
aF3.3203540328176717
aF3.6214878645806303
aF3.3203540328176717
aF3.44544851426605
aF3.922569768985712
aF3.922569768985712
aF3.922569768985712
aF2.9222062774390163
aF2.775974331129369
aF3.6214878645806303
aF3.922569768985712
aF3.922569768985712
aF2.745855195173729
aF3.922569768985712
aF3.922569768985712
aF3.922569768985712
aF3.6214878645806303
aF3.6214878645806303
aF3.922569768985712
aF3.6214878645806303
aF3.922569768985712
aF3.922569768985712
aF3.6214878645806303
aF1.6434526764861874
aF3.2234959409623944
aF3.44544851426605
aF2.5599066250361124
aF3.44544851426605
aF3.44544851426605
aF3.922569768985712
aF3.922569768985712
aF3.44544851426605
aF3.922569768985712
aF3.922569768985712
aF3.922569768985712
aF3.44544851426605
aF3.922569768985712
aF3.922569768985712
aF3.922569768985712
aF3.922569768985712
aF3.922569768985712
aF3.144262773761991
aF3.2234959409623944
aF3.922569768985712
aF3.44544851426605
aF3.922569768985712
aF3.922569768985712
aF3.922569768985712
aF2.808210972924222
aF2.9222062774390163
aF3.922569768985712
aF3.922569768985712
aF1.4913616938342726
aF3.922569768985712
aF3.3203540328176717
aF2.403120521175818
aF2.3096301674258988
aF3.144262773761991
aF3.6214878645806303
aF3.44544851426605
aF2.8808135922807914
aF3.144262773761991
aF2.8808135922807914
aF3.3203540328176717
aF3.6214878645806303
aF3.44544851426605
aF3.44544851426605
aF2.968015713993642
aF3.922569768985712
aF3.922569768985712
aF3.922569768985712
aF3.2234959409623944
aF3.6214878645806303
aF3.6214878645806303
aF3.6214878645806303
aF3.6214878645806303
aF3.3203540328176717
aF3.6214878645806303
aF3.922569768985712
aF3.922569768985712
aF3.019116290447073
aF3.0773679052841563
aF3.0773679052841563
aF2.6434526764861874
aF3.3203540328176717
aF3.44544851426605
aF3.44544851426605
aF3.6214878645806303
aF3.2234959409623944
aF3.44544851426605
aF3.44544851426605
aF3.922569768985712
aF3.922569768985712
aF3.922569768985712
aF3.922569768985712
aF3.0773679052841563
aF3.6214878645806303
aF3.3203540328176717
aF3.6214878645806303
aF3.6214878645806303
aF3.6214878645806303
aF3.922569768985712
aF3.922569768985712
aF3.922569768985712
aF3.922569768985712
aF3.44544851426605
aF3.922569768985712
aF3.2234959409623944
aF3.922569768985712
aF3.44544851426605
aF3.44544851426605
aF3.3203540328176717
aF3.922569768985712
aF3.6214878645806303
aF3.922569768985712
aF3.922569768985712
aF3.922569768985712
aF3.6214878645806303
aF3.6214878645806303
aF3.44544851426605
aF3.3203540328176717
aF3.922569768985712
aF3.6214878645806303
aF3.922569768985712
aF3.922569768985712
aF3.922569768985712
aF3.44544851426605
aF3.6214878645806303
aF3.144262773761991
aF3.922569768985712
aF3.922569768985712
aF3.44544851426605
aF3.144262773761991
aF3.922569768985712
aF3.922569768985712
aF2.1271047983648077
aF3.922569768985712
aF3.922569768985712
aF3.922569768985712
aF3.922569768985712
aF3.922569768985712
aF3.922569768985712
aF3.922569768985712
aF2.12057393120585
aF3.922569768985712
aF3.922569768985712
aF3.922569768985712
aF3.6214878645806303
aF3.922569768985712
aF3.922569768985712
aF3.922569768985712
aF3.922569768985712
aF3.922569768985712
aF3.922569768985712
aF3.44544851426605
aF3.922569768985712
aF3.922569768985712
aF3.922569768985712
aF3.6214878645806303
aF3.44544851426605
aF3.44544851426605
aF3.6214878645806303
aF3.6214878645806303
aF3.922569768985712
aF3.6214878645806303
aF3.6214878645806303
aF3.6214878645806303
aF3.922569768985712
aF3.922569768985712
aF3.922569768985712
aF3.922569768985712
aF3.6214878645806303
aF3.922569768985712
aF3.6214878645806303
aF3.6214878645806303
aF3.922569768985712
aF2.278753600952829
aF3.922569768985712
aF3.922569768985712
aF3.922569768985712
aF2.621176281775035
aF3.922569768985712
aF3.6214878645806303
aF3.6214878645806303
aF3.6214878645806303
aF0.6989700043360189
aF3.6214878645806303
aF3.6214878645806303
aF3.6214878645806303
aF3.6214878645806303
aF3.922569768985712
aF3.922569768985712
aF3.922569768985712
aF3.922569768985712
aF3.922569768985712
aF3.922569768985712
aF3.6214878645806303
aF3.6214878645806303
aF3.6214878645806303
aF3.922569768985712
aF3.922569768985712
aF2.8432327780980096
aF3.922569768985712
aF3.6214878645806303
aF3.922569768985712
aF3.922569768985712
aF3.922569768985712
aF3.922569768985712
aF3.144262773761991
aF1.6127838567197355
aF3.922569768985712
aF3.922569768985712
aF3.922569768985712
aF3.922569768985712
aF3.922569768985712
aF3.922569768985712
aF3.922569768985712
aF2.968015713993642
aF3.3203540328176717
aF3.3203540328176717
aF3.922569768985712
aF3.922569768985712
aF3.922569768985712
aF3.6214878645806303
aF3.922569768985712
aF3.922569768985712
aF3.6214878645806303
aF3.922569768985712
aF3.922569768985712
aF3.922569768985712
aF3.922569768985712
aF3.922569768985712
aF3.922569768985712
aF1.146128035678238
aF3.922569768985712
aF3.0773679052841563
aF2.9222062774390163
aF2.808210972924222
aF3.922569768985712
aF3.0773679052841563
aF3.922569768985712
aF3.2234959409623944
aF3.922569768985712
aF3.922569768985712
aF3.922569768985712
aF3.922569768985712
aF3.44544851426605
aF3.922569768985712
aF3.0773679052841563
aF3.922569768985712
aF3.922569768985712
aF3.019116290447073
aF3.3203540328176717
aF3.6214878645806303
aF3.922569768985712
aF3.922569768985712
aF3.922569768985712
aF3.922569768985712
aF3.922569768985712
aF3.922569768985712
aF3.922569768985712
aF3.922569768985712
aF3.6214878645806303
aF3.922569768985712
aF3.922569768985712
aF3.922569768985712
aF3.922569768985712
aF3.922569768985712
aF3.922569768985712
aF3.922569768985712
aF3.922569768985712
aF3.44544851426605
aF3.922569768985712
aF3.922569768985712
aF3.922569768985712
aF3.922569768985712
aF3.922569768985712
aF3.922569768985712
aF2.330413773349191
aF3.922569768985712
aF3.922569768985712
aF3.922569768985712
aF3.922569768985712
aF3.922569768985712
aF3.922569768985712
aF2.8808135922807914
aF3.922569768985712
aF3.922569768985712
aF3.922569768985712
aF3.44544851426605
aF3.44544851426605
aF3.6214878645806303
aF3.922569768985712
aF3.922569768985712
aF3.922569768985712
aF3.44544851426605
aF3.922569768985712
aF3.922569768985712
aF3.922569768985712
aF3.922569768985712
aF3.922569768985712
aF3.2234959409623944
aF3.922569768985712
aF3.6214878645806303
aF3.6214878645806303
aF3.44544851426605
aF3.922569768985712
aF3.922569768985712
aF3.44544851426605
aF3.922569768985712
aF3.922569768985712
aF3.922569768985712
aF3.6214878645806303
aF3.922569768985712
aF3.922569768985712
aF3.922569768985712
aF3.922569768985712
aF3.922569768985712
aF3.922569768985712
aF3.922569768985712
aF3.922569768985712
aF3.922569768985712
aF3.922569768985712
aF3.922569768985712
aF3.922569768985712
aF3.922569768985712
aF3.6214878645806303
aF3.922569768985712
aF3.922569768985712
aF3.922569768985712
aF3.6214878645806303
aF3.6214878645806303
aF3.6214878645806303
aF3.6214878645806303
aF3.922569768985712
aF3.6214878645806303
aF3.922569768985712
aF2.459392487759231
aF3.922569768985712
aF3.144262773761991
aF3.144262773761991
aF3.144262773761991
aF3.44544851426605
aF3.922569768985712
aF3.922569768985712
aF3.144262773761991
aF3.922569768985712
aF3.922569768985712
aF3.922569768985712
aF3.6214878645806303
aF3.6214878645806303
aF3.6214878645806303
aF3.922569768985712
aF3.922569768985712
aF3.922569768985712
aF3.922569768985712
aF3.922569768985712
aF3.922569768985712
aF3.922569768985712
aF2.4742162640762553
aF3.922569768985712
a.