(dp0
V\u5171\u540c\u52d5\u4f5c
p1
(lp2
V\u5bfe\u8c61
p3
aV\u95a2\u4fc2
p4
asFnan
(lp5
g3
asV\u72b6\u614b
p6
(lp7
g3
asV\u5bfe\u4eba\u30fb\u5bfe\u7269\u7684\u52d5\u4f5c
p8
(lp9
g3
asV\u72b6\u614b\u7dad\u6301
p10
(lp11
g3
asV\u9042\u884c
p12
(lp13
g3
asV\u52d5\u4f5c\u306e\u69d8\u614b\u30fb\u7a0b\u5ea6
p14
(lp15
g3
ag4
asV\u5bfe\u8c61\u306e\u5909\u5316
p16
(lp17
g3
aV\u7740\u70b9
p18
asV\u4e3b\u4f53\u306e\u6027\u8cea
p19
(lp20
g3
asV\u975e\u610f\u5fd7\u7684\u306a\u904b\u52d5\u30fb\u53cd\u5fdc
p21
(lp22
g3
asV\u305d\u306e\u4ed6\u306e\u5909\u5316
p23
(lp24
g3
asV\u5bfe\u8c61\u306e\u6027\u8cea
p25
(lp26
g3
asV\u4f4d\u7f6e\u5909\u5316
p27
(lp28
g3
ag18
asV\u95a2\u4fc2
p29
(lp30
g3
ag4
asV\u4ed6\u8005\u306b\u52d5\u4f5c\u3092\u4fc3\u3059\u52d5\u4f5c
p31
(lp32
V\u72b6\u6cc1
p33
ag18
asV\u5909\u66f4
p34
(lp35
g33
asV\u79fb\u52d5\u52d5\u4f5c
p36
(lp37
g3
aV\u624b\u6bb5
p38
asV\u4ea4\u63db
p39
(lp40
g33
asV\u305d\u306e\u4ed6\u306e\u52d5\u4f5c
p41
(lp42
g33
ag18
asV\u4e3b\u4f53\u306e\u72b6\u614b\u5909\u5316\u306e\u305f\u3081\u306e\u52d5\u4f5c
p43
(lp44
g3
ag38
asV\u6240\u6709
p45
(lp46
g3
ag33
asV\u72b6\u614b\u5909\u5316
p47
(lp48
g3
ag38
asV\u4f7f\u5f79
p49
(lp50
g3
asV\u975e\u9042\u884c
p51
(lp52
V\u4e3b\u4f53
p53
asV\u4f4d\u7f6e
p54
(lp55
g3
ag33
asV\u8eab\u4f53\u7684\u52d5\u4f5c
p56
(lp57
g33
asV\u5b9f\u884c
p58
(lp59
g33
asV\u751f\u6210\u30fb\u6d88\u6ec5
p60
(lp61
g18
asV\u81ea\u7136\u73fe\u8c61
p62
(lp63
g33
asV\u4e3b\u4f53\u306e\u5909\u5316
p64
(lp65
g3
ag18
asV\u53cd\u5fa9\u30fb\u7d99\u7d9a
p66
(lp67
g3
asV\u60c5\u5831\u30fb\u89e3\u6c7a\u7b56\u3092\u5f97\u308b\u305f\u3081\u306e\u52d5\u4f5c
p68
(lp69
g4
asV\u958b\u59cb\u30fb\u7d42\u4e86
p70
(lp71
g3
asV\u76f8\u624b\u3068\u306e\u95a2\u4fc2\u306e\u5909\u5316\u306e\u305f\u3081\u306e\u52d5\u4f5c
p72
(lp73
g3
ag18
asV\u5bfe\u8c61\u306e\u5909\u5316\uff08\u4e3b\u4f53\u306e\u5224\u65ad\u306b\u4f34\u3046\u5909\u5316\uff09
p74
(lp75
g3
asV\u7d50\u679c
p76
(lp77
g3
asV\u9032\u884c\u72b6\u6cc1\u306e\u5909\u5316
p78
(lp79
g3
ag18
asV\u4e3b\u4f53\u306e\u5909\u5316\uff08\u5224\u65ad\u30fb\u8a8d\u8b58\u306e\u5909\u5316\uff09
p80
(lp81
g3
asV\u52d5\u4f5c\u306e\u69d8\u614b\u306e\u5909\u5316
p82
(lp83
g3
asV\uff08\u4eba\u3068\u306e\u95a2\u308f\u308a\u306b\u57fa\u3065\u304f\uff09\u5bfe\u8c61\u306e\u6027\u8cea
p84
(lp85
g3
asV\u95a2\u4fc2\u306e\u5909\u5316
p86
(lp87
g4
as.